###############################################################################
#                                                                             #
# IAR 8051 C/C++ Compiler V7.30B/W32                    24/Mar/2013  16:31:43 #
# Copyright 2004-2007 IAR Systems. All rights reserved.                       #
#                                                                             #
#    Core               =  plain                                              #
#    Code model         =  banked                                             #
#    Data model         =  large                                              #
#    Calling convention =  xdata reentrant                                    #
#    Constant location  =  data                                               #
#    Dptr setup         =  1,16                                               #
#    Source file        =  C:\Texas Instruments\ZStack-1.4.3-1.2.1\Projects\z #
#                          stack\Samples\cc2430-zstack-adxl345\Drivers\adxl34 #
#                          5.c                                                #
#    Command line       =  -f "C:\Texas Instruments\ZStack-1.4.3-1.2.1\Projec #
#                          ts\zstack\Samples\cc2430-zstack-adxl345\CC2430DB\. #
#                          .\..\..\Tools\CC2430DB\f8wCoord.cfg" (-DCPU32MHZ   #
#                          -DFORCE_MAC_NEAR -DROOT=__near_func                #
#                          -DMAC_CFG_APP_PENDING_QUEUE=TRUE                   #
#                          -DZDO_COORDINATOR -DRTR_NWK -DBLINK_LEDS           #
#                          "-DCONST=const __code" -DGENERIC=__generic) -f     #
#                          "C:\Texas Instruments\ZStack-1.4.3-1.2.1\Projects\ #
#                          zstack\Samples\cc2430-zstack-adxl345\CC2430DB\..\. #
#                          .\..\Tools\CC2430DB\f8wConfig.cfg" (-DSECURE=0     #
#                          -DDEFAULT_CHANLIST=0x00000800                      #
#                          -DZDAPP_CONFIG_PAN_ID=0xFFFF                       #
#                          -DNWK_START_DELAY=100 -DEXTENDED_JOINING_RANDOM_MA #
#                          SK=0x007F -DBEACON_REQUEST_DELAY=100               #
#                          -DBEACON_REQ_DELAY_MASK=0x00FF                     #
#                          -DROUTE_EXPIRY_TIME=30 -DAPSC_ACK_WAIT_DURATION_PO #
#                          LLED=3000 -DNWK_INDIRECT_MSG_TIMEOUT=7             #
#                          -DMAX_RREQ_ENTRIES=10 -DAPSC_MAX_FRAME_RETRIES=3   #
#                          -DNWK_MAX_DATA_RETRIES=2                           #
#                          -DMAX_POLL_FAILURE_RETRIES=2 -DMAX_BCAST=9         #
#                          -DAPS_MAX_GROUPS=16 -DMAX_RTG_ENTRIES=20           #
#                          -DNWK_MAX_BINDING_ENTRIES=10                       #
#                          -DMAX_BINDING_CLUSTER_IDS=5 "-DDEFAULT_KEY={0x01,  #
#                          0x03, 0x05, 0x07, 0x09, 0x0B, 0x0D, 0x0F, 0x00,    #
#                          0x02, 0x04, 0x06, 0x08, 0x0A, 0x0C, 0x0D}"         #
#                          -DRFD_RCVC_ALWAYS_ON=FALSE -DPOLL_RATE=1000        #
#                          -DQUEUED_POLL_RATE=100 -DRESPONSE_POLL_RATE=100)   #
#                          -DREJOIN_POLL_RATE=440 "C:\Texas                   #
#                          Instruments\ZStack-1.4.3-1.2.1\Projects\zstack\Sam #
#                          ples\cc2430-zstack-adxl345\Drivers\adxl345.c" -D   #
#                          CC2430EB -D REFLECTOR -D HAL_UART -D xZTOOL_P1 -D  #
#                          AXD_COR -D MT_TASK -D xMT_ZDO_FUNC -D              #
#                          LCD_SUPPORTED=DEBUG -lC "C:\Texas                  #
#                          Instruments\ZStack-1.4.3-1.2.1\Projects\zstack\Sam #
#                          ples\cc2430-zstack-adxl345\CC2430DB\CoordinatorEB\ #
#                          List\" -lA "C:\Texas Instruments\ZStack-1.4.3-1.2. #
#                          1\Projects\zstack\Samples\cc2430-zstack-adxl345\CC #
#                          2430DB\CoordinatorEB\List\" --diag_suppress        #
#                          Pe001,Pa010 --diag_remark pe550 -o "C:\Texas       #
#                          Instruments\ZStack-1.4.3-1.2.1\Projects\zstack\Sam #
#                          ples\cc2430-zstack-adxl345\CC2430DB\CoordinatorEB\ #
#                          Obj\" -e --require_prototypes -z9                  #
#                          --no_code_motion --debug --core=plain --dptr=16,1  #
#                          --data_model=large --code_model=banked             #
#                          --calling_convention=xdata_reentrant               #
#                          --place_constants=data --nr_virtual_regs 8 -I      #
#                          "C:\Texas Instruments\ZStack-1.4.3-1.2.1\Projects\ #
#                          zstack\Samples\cc2430-zstack-adxl345\CC2430DB\"    #
#                          -I "C:\Texas Instruments\ZStack-1.4.3-1.2.1\Projec #
#                          ts\zstack\Samples\cc2430-zstack-adxl345\CC2430DB\. #
#                          .\SOURCE\" -I "C:\Texas Instruments\ZStack-1.4.3-1 #
#                          .2.1\Projects\zstack\Samples\cc2430-zstack-adxl345 #
#                          \CC2430DB\..\Drivers\" -I "C:\Texas                #
#                          Instruments\ZStack-1.4.3-1.2.1\Projects\zstack\Sam #
#                          ples\cc2430-zstack-adxl345\CC2430DB\..\..\..\ZMAIN #
#                          \TI2430DB\" -I "C:\Texas                           #
#                          Instruments\ZStack-1.4.3-1.2.1\Projects\zstack\Sam #
#                          ples\cc2430-zstack-adxl345\CC2430DB\..\..\..\..\.. #
#                          \COMPONENTS\MT\" -I "C:\Texas                      #
#                          Instruments\ZStack-1.4.3-1.2.1\Projects\zstack\Sam #
#                          ples\cc2430-zstack-adxl345\CC2430DB\..\..\..\..\.. #
#                          \COMPONENTS\HAL\INCLUDE\" -I "C:\Texas             #
#                          Instruments\ZStack-1.4.3-1.2.1\Projects\zstack\Sam #
#                          ples\cc2430-zstack-adxl345\CC2430DB\..\..\..\..\.. #
#                          \COMPONENTS\HAL\TARGET\CC2430EB\" -I "C:\Texas     #
#                          Instruments\ZStack-1.4.3-1.2.1\Projects\zstack\Sam #
#                          ples\cc2430-zstack-adxl345\CC2430DB\..\..\..\..\.. #
#                          \COMPONENTS\OSAL\MCU\CCSOC\" -I "C:\Texas          #
#                          Instruments\ZStack-1.4.3-1.2.1\Projects\zstack\Sam #
#                          ples\cc2430-zstack-adxl345\CC2430DB\..\..\..\..\.. #
#                          \COMPONENTS\OSAL\INCLUDE\" -I "C:\Texas            #
#                          Instruments\ZStack-1.4.3-1.2.1\Projects\zstack\Sam #
#                          ples\cc2430-zstack-adxl345\CC2430DB\..\..\..\..\.. #
#                          \COMPONENTS\STACK\AF\" -I "C:\Texas                #
#                          Instruments\ZStack-1.4.3-1.2.1\Projects\zstack\Sam #
#                          ples\cc2430-zstack-adxl345\CC2430DB\..\..\..\..\.. #
#                          \COMPONENTS\STACK\NWK\" -I "C:\Texas               #
#                          Instruments\ZStack-1.4.3-1.2.1\Projects\zstack\Sam #
#                          ples\cc2430-zstack-adxl345\CC2430DB\..\..\..\..\.. #
#                          \COMPONENTS\STACK\SEC\" -I "C:\Texas               #
#                          Instruments\ZStack-1.4.3-1.2.1\Projects\zstack\Sam #
#                          ples\cc2430-zstack-adxl345\CC2430DB\..\..\..\..\.. #
#                          \COMPONENTS\STACK\SYS\" -I "C:\Texas               #
#                          Instruments\ZStack-1.4.3-1.2.1\Projects\zstack\Sam #
#                          ples\cc2430-zstack-adxl345\CC2430DB\..\..\..\..\.. #
#                          \COMPONENTS\STACK\ZDO\" -I "C:\Texas               #
#                          Instruments\ZStack-1.4.3-1.2.1\Projects\zstack\Sam #
#                          ples\cc2430-zstack-adxl345\CC2430DB\..\..\..\..\.. #
#                          \COMPONENTS\ZMAC\F8W\" -I "C:\Texas                #
#                          Instruments\ZStack-1.4.3-1.2.1\Projects\zstack\Sam #
#                          ples\cc2430-zstack-adxl345\CC2430DB\..\..\..\..\.. #
#                          \COMPONENTS\ZMAC\" -I "C:\Texas                    #
#                          Instruments\ZStack-1.4.3-1.2.1\Projects\zstack\Sam #
#                          ples\cc2430-zstack-adxl345\CC2430DB\..\..\..\..\.. #
#                          \COMPONENTS\SERVICES\SADDR\" -I "C:\Texas          #
#                          Instruments\ZStack-1.4.3-1.2.1\Projects\zstack\Sam #
#                          ples\cc2430-zstack-adxl345\CC2430DB\..\..\..\..\.. #
#                          \COMPONENTS\SERVICES\SDATA\" -I "C:\Texas          #
#                          Instruments\ZStack-1.4.3-1.2.1\Projects\zstack\Sam #
#                          ples\cc2430-zstack-adxl345\CC2430DB\..\..\..\..\.. #
#                          \COMPONENTS\MAC\INCLUDE\" -I "C:\Texas             #
#                          Instruments\ZStack-1.4.3-1.2.1\Projects\zstack\Sam #
#                          ples\cc2430-zstack-adxl345\CC2430DB\..\..\..\..\.. #
#                          \COMPONENTS\MAC\HIGH_LEVEL\" -I "C:\Texas          #
#                          Instruments\ZStack-1.4.3-1.2.1\Projects\zstack\Sam #
#                          ples\cc2430-zstack-adxl345\CC2430DB\..\..\..\..\.. #
#                          \COMPONENTS\MAC\LOW_LEVEL\SRF03\" -I "C:\Texas     #
#                          Instruments\ZStack-1.4.3-1.2.1\Projects\zstack\Sam #
#                          ples\cc2430-zstack-adxl345\CC2430DB\..\..\..\..\.. #
#                          \COMPONENTS\MAC\LOW_LEVEL\SRF03\SINGLE_CHIP\" -I   #
#                          "C:\Program Files\IAR Systems\Embedded Workbench   #
#                          4.0 Evaluation version\8051\INC\" -I "C:\Program   #
#                          Files\IAR Systems\Embedded Workbench 4.0           #
#                          Evaluation version\8051\INC\CLIB\"                 #
#    List file          =  C:\Texas Instruments\ZStack-1.4.3-1.2.1\Projects\z #
#                          stack\Samples\cc2430-zstack-adxl345\CC2430DB\Coord #
#                          inatorEB\List\adxl345.lst                          #
#    Object file        =  C:\Texas Instruments\ZStack-1.4.3-1.2.1\Projects\z #
#                          stack\Samples\cc2430-zstack-adxl345\CC2430DB\Coord #
#                          inatorEB\Obj\adxl345.r51                           #
#                                                                             #
#                                                                             #
###############################################################################

C:\Texas Instruments\ZStack-1.4.3-1.2.1\Projects\zstack\Samples\cc2430-zstack-adxl345\Drivers\adxl345.c
      1          #include <ioCC2430.h>

   \                                 In  segment SFR_AN, at 0x90
   \   union <unnamed> volatile __sfr _A_P1
   \                     _A_P1:
   \   000000                DS 1

   \                                 In  segment SFR_AN, at 0xfe
   \   unsigned char volatile __sfr P1DIR
   \                     P1DIR:
   \   000000                DS 1
      2          #include <string.h>
      3          #include <math.h>
      4          #include <stdio.h>
      5          #include <math.h>
      6          #include "adxl345.h"
      7          //#include "LCD3310.h"
      8          #define SCL     P1_2
      9          #define SDA     P1_3
     10          
     11          #define SDADirOut P1DIR|=0x08;      //xxxx1M01
     12          #define SDADirIn  P1DIR&=~0x08;
     13          
     14          #define TRUE 1
     15          #define FALSE 0
     16          #define	SlaveAddress 0xA6 //定义器件在IIC总线中的从地址,根据ALT  ADDRESS地址引脚不同修改
     17          

   \                                 In  segment XDATA_Z, align 1, keep-with-next
     18          INT8U BUFFER[12];
   \                     BUFFER:
   \   000000                DS 12
   \   00000C                REQUIRE __INIT_XDATA_Z

   \                                 In  segment XDATA_Z, align 1, keep-with-next
     19          INT8U POS_TEMP[6];
   \                     POS_TEMP:
   \   000000                DS 6
   \   000006                REQUIRE __INIT_XDATA_Z

   \                                 In  segment XDATA_Z, align 1, keep-with-next
     20          int  dis_data;
   \                     dis_data:
   \   000000                DS 2
   \   000002                REQUIRE __INIT_XDATA_Z
     21          

   \                                 In  segment XDATA_Z, align 1, keep-with-next
     22          char wan,qian,bai,shi,ge;
   \                     wan:
   \   000000                DS 1
   \   000001                REQUIRE __INIT_XDATA_Z

   \                                 In  segment XDATA_Z, align 1, keep-with-next
   \                     qian:
   \   000000                DS 1
   \   000001                REQUIRE __INIT_XDATA_Z

   \                                 In  segment XDATA_Z, align 1, keep-with-next
   \                     bai:
   \   000000                DS 1
   \   000001                REQUIRE __INIT_XDATA_Z

   \                                 In  segment XDATA_Z, align 1, keep-with-next
   \                     shi:
   \   000000                DS 1
   \   000001                REQUIRE __INIT_XDATA_Z

   \                                 In  segment XDATA_Z, align 1, keep-with-next
   \                     `ge`:
   \   000000                DS 1
   \   000001                REQUIRE __INIT_XDATA_Z
     23          
     24          void initUARTtest(void);
     25          void UartTX_Send_String(char *Data,int len);
     26          void conversion(void);
     27          
     28          void Sendack(unsigned char h);
     29          unsigned char I2C_Check_ack();
     30          
     31          void I2C_Start_1(void);
     32          void I2C_Stop_1(void);
     33          
     34          void WriteI2CByte_1(INT8U b);
     35          unsigned char ReadI2CByte_1(void);
     36          
     37          unsigned char Single_Read_ADXL345(INT8U REG_Address);
     38          void Single_Write_ADXL345(INT8U REG_Address,INT8U REG_data);
     39          
     40          void Init_ADXL345();
     41          
     42          void Delay_1u(unsigned int microSecs);
     43          void Delay(INT16U n);
     44          
     45          INT8U I2C_Check_ack(void);
     46          
     47          
     48          void Multiple_Read_ADXL345(void);
     49          

   \                                 In  segment BANKED_CODE, align 1, keep-with-next
     50          void Delay(INT16U n)      //(5/32)*n   us
   \                     Delay:
     51          {
   \   000000                ; Saved register size: 0
   \   000000                ; Auto size: 0
     52              INT16U d;
     53              for(d=0;d<n;d++);
   \   000000   7800         MOV     R0,#0x0
   \   000002   7900         MOV     R1,#0x0
   \   000004   8003         SJMP    ??CrossCallReturnLabel_3
   \                     ??Delay_0:
   \   000006   12....       LCALL   ?Subroutine1 & 0xFFFF
   \                     ??CrossCallReturnLabel_3:
   \   000009   C3           CLR     C
   \   00000A   E8           MOV     A,R0
   \   00000B   9A           SUBB    A,R2
   \   00000C   E9           MOV     A,R1
   \   00000D   9B           SUBB    A,R3
   \   00000E   40F6         JC      ??Delay_0
     54              for(d=0;d<n;d++);
   \   000010   7800         MOV     R0,#0x0
   \   000012   7900         MOV     R1,#0x0
   \   000014   8003         SJMP    ??CrossCallReturnLabel_4
   \                     ??Delay_1:
   \   000016   12....       LCALL   ?Subroutine1 & 0xFFFF
   \                     ??CrossCallReturnLabel_4:
   \   000019   C3           CLR     C
   \   00001A   E8           MOV     A,R0
   \   00001B   9A           SUBB    A,R2
   \   00001C   E9           MOV     A,R1
   \   00001D   9B           SUBB    A,R3
   \   00001E   40F6         JC      ??Delay_1
     55              for(d=0;d<n;d++);
   \   000020   7800         MOV     R0,#0x0
   \   000022   7900         MOV     R1,#0x0
   \   000024   8003         SJMP    ??CrossCallReturnLabel_5
   \                     ??Delay_2:
   \   000026   12....       LCALL   ?Subroutine1 & 0xFFFF
   \                     ??CrossCallReturnLabel_5:
   \   000029   C3           CLR     C
   \   00002A   E8           MOV     A,R0
   \   00002B   9A           SUBB    A,R2
   \   00002C   E9           MOV     A,R1
   \   00002D   9B           SUBB    A,R3
   \   00002E   40F6         JC      ??Delay_2
     56              for(d=0;d<n;d++);
   \   000030   7800         MOV     R0,#0x0
   \   000032   7900         MOV     R1,#0x0
   \   000034   8003         SJMP    ??CrossCallReturnLabel_6
   \                     ??Delay_3:
   \   000036   12....       LCALL   ?Subroutine1 & 0xFFFF
   \                     ??CrossCallReturnLabel_6:
   \   000039   C3           CLR     C
   \   00003A   E8           MOV     A,R0
   \   00003B   9A           SUBB    A,R2
   \   00003C   E9           MOV     A,R1
   \   00003D   9B           SUBB    A,R3
   \   00003E   40F6         JC      ??Delay_3
     57              for(d=0;d<n;d++);
   \   000040   7800         MOV     R0,#0x0
   \   000042   7900         MOV     R1,#0x0
   \   000044   8003         SJMP    ??CrossCallReturnLabel_7
   \                     ??Delay_4:
   \   000046   12....       LCALL   ?Subroutine1 & 0xFFFF
   \                     ??CrossCallReturnLabel_7:
   \   000049   C3           CLR     C
   \   00004A   E8           MOV     A,R0
   \   00004B   9A           SUBB    A,R2
   \   00004C   E9           MOV     A,R1
   \   00004D   9B           SUBB    A,R3
   \   00004E   40F6         JC      ??Delay_4
     58          }
   \   000050   02....       LJMP    ?BRET

   \                                 In  segment BANKED_CODE, align 1, keep-with-next
   \                     ?Subroutine1:
   \   000000   E8           MOV     A,R0
   \   000001   2401         ADD     A,#0x1
   \   000003   08           INC     R0
   \   000004   E9           MOV     A,R1
   \   000005   3400         ADDC    A,#0x0
   \   000007   F9           MOV     R1,A
   \   000008   22           RET
     59          

   \                                 In  segment BANKED_CODE, align 1, keep-with-next
     60          void Delay_1u(unsigned int microSecs) {
   \                     Delay_1u:
   \   000000                ; Saved register size: 0
   \   000000                ; Auto size: 0
   \   000000   8020         SJMP    ??Delay_1u_0
     61              while(microSecs--)
     62              {
     63                  /* 32 NOPs == 1 usecs */
     64                  asm("nop"); asm("nop"); asm("nop"); asm("nop"); asm("nop");
   \                     ??Delay_1u_1:
   \   000002   00           nop
   \   000003   00           nop
   \   000004   00           nop
   \   000005   00           nop
   \   000006   00           nop
     65                  asm("nop"); asm("nop"); asm("nop"); asm("nop"); asm("nop");
   \   000007   00           nop
   \   000008   00           nop
   \   000009   00           nop
   \   00000A   00           nop
   \   00000B   00           nop
     66                  asm("nop"); asm("nop"); asm("nop"); asm("nop"); asm("nop");
   \   00000C   00           nop
   \   00000D   00           nop
   \   00000E   00           nop
   \   00000F   00           nop
   \   000010   00           nop
     67                  asm("nop"); asm("nop"); asm("nop"); asm("nop"); asm("nop");
   \   000011   00           nop
   \   000012   00           nop
   \   000013   00           nop
   \   000014   00           nop
   \   000015   00           nop
     68                  asm("nop"); asm("nop"); asm("nop"); asm("nop"); asm("nop");
   \   000016   00           nop
   \   000017   00           nop
   \   000018   00           nop
   \   000019   00           nop
   \   00001A   00           nop
     69                  asm("nop"); asm("nop"); asm("nop"); asm("nop"); asm("nop");
   \   00001B   00           nop
   \   00001C   00           nop
   \   00001D   00           nop
   \   00001E   00           nop
   \   00001F   00           nop
     70                  asm("nop"); asm("nop");
   \   000020   00           nop
   \   000021   00           nop
     71              }
   \                     ??Delay_1u_0:
   \   000022   EA           MOV     A,R2
   \   000023   F8           MOV     R0,A
   \   000024   EB           MOV     A,R3
   \   000025   F9           MOV     R1,A
   \   000026   74FF         MOV     A,#-0x1
   \   000028   28           ADD     A,R0
   \   000029   1A           DEC     R2
   \   00002A   74FF         MOV     A,#-0x1
   \   00002C   39           ADDC    A,R1
   \   00002D   FB           MOV     R3,A
   \   00002E   E8           MOV     A,R0
   \   00002F   7001         JNZ     ??Delay_1u_2
   \   000031   E9           MOV     A,R1
   \                     ??Delay_1u_2:
   \   000032   70CE         JNZ     ??Delay_1u_1
     72          }
   \   000034   02....       LJMP    ?BRET
     73          

   \                                 In  segment BANKED_CODE, align 1, keep-with-next
     74          void conversion(void)
   \                     conversion:
     75          {
   \   000000   74F0         MOV     A,#-0x10
   \   000002   12....       LCALL   ?BANKED_ENTER_XDATA
   \   000005                ; Saved register size: 16
   \   000005                ; Auto size: 6
   \   000005   74FA         MOV     A,#-0x6
   \   000007   12....       LCALL   ?ALLOC_XSTACK8
     76              BUFFER[10] = 0xff;
   \   00000A   74FF         MOV     A,#-0x1
   \   00000C   90....       MOV     DPTR,#(BUFFER + 10)
   \   00000F   F0           MOVX    @DPTR,A
     77              int data[3];
     78              double temp;
     79              data[0] = (POS_TEMP[1] << 8) + POS_TEMP[0];
   \   000010   90....       MOV     DPTR,#(POS_TEMP + 1)
   \   000013   E0           MOVX    A,@DPTR
   \   000014   F9           MOV     R1,A
   \   000015   90....       MOV     DPTR,#POS_TEMP
   \   000018   E0           MOVX    A,@DPTR
   \   000019   2400         ADD     A,#0x0
   \   00001B   85..82       MOV     DPL,?XSP + 0
   \   00001E   85..83       MOV     DPH,?XSP + 1
   \   000021   F0           MOVX    @DPTR,A
   \   000022   A3           INC     DPTR
   \   000023   E9           MOV     A,R1
   \   000024   F0           MOVX    @DPTR,A
     80              if (data[0] < 0){
   \   000025   12....       LCALL   ??Subroutine2_0 & 0xFFFF
   \                     ??CrossCallReturnLabel_11:
   \   000028   500F         JNC     ??conversion_0
     81                  data[0] = -data[0];
   \   00002A   85..82       MOV     DPL,?XSP + 0
   \   00002D   85..83       MOV     DPH,?XSP + 1
   \   000030   12....       LCALL   ?Subroutine11 & 0xFFFF
     82                  BUFFER[10] &= ~0x01;
   \                     ??CrossCallReturnLabel_29:
   \   000033   74FE         MOV     A,#-0x2
   \   000035   90....       MOV     DPTR,#(BUFFER + 10)
   \   000038   F0           MOVX    @DPTR,A
     83              }
     84              data[1] = (POS_TEMP[3] << 8) + POS_TEMP[2];
   \                     ??conversion_0:
   \   000039   90....       MOV     DPTR,#(POS_TEMP + 3)
   \   00003C   E0           MOVX    A,@DPTR
   \   00003D   F9           MOV     R1,A
   \   00003E   90....       MOV     DPTR,#(POS_TEMP + 2)
   \   000041   E0           MOVX    A,@DPTR
   \   000042   F8           MOV     R0,A
   \   000043   7402         MOV     A,#0x2
   \   000045   12....       LCALL   ?XSTACK_DISP0_8
   \   000048   E8           MOV     A,R0
   \   000049   F0           MOVX    @DPTR,A
   \   00004A   A3           INC     DPTR
   \   00004B   E9           MOV     A,R1
   \   00004C   F0           MOVX    @DPTR,A
     85              if (data[1] < 0){
   \   00004D   C3           CLR     C
   \   00004E   12....       LCALL   ??Subroutine2_0 & 0xFFFF
   \                     ??CrossCallReturnLabel_12:
   \   000051   500B         JNC     ??conversion_1
     86                  data[1] = -data[1];
   \   000053   7402         MOV     A,#0x2
   \   000055   12....       LCALL   ?XSTACK_DISP0_8
   \   000058   12....       LCALL   ?Subroutine3 & 0xFFFF
     87                  BUFFER[10] &= ~0x02;
   \                     ??CrossCallReturnLabel_13:
   \   00005B   C2E1         CLR     0xE0 /* A   */.1
   \   00005D   F0           MOVX    @DPTR,A
     88              }
     89              data[2] = (POS_TEMP[5] << 8 + POS_TEMP[4]);
   \                     ??conversion_1:
   \   00005E   90....       MOV     DPTR,#(POS_TEMP + 5)
   \   000061   E0           MOVX    A,@DPTR
   \   000062   F5..         MOV     ?V0 + 0,A
   \   000064   75..00       MOV     ?V0 + 1,#0x0
   \   000067   90....       MOV     DPTR,#(POS_TEMP + 4)
   \   00006A   E0           MOVX    A,@DPTR
   \   00006B   2408         ADD     A,#0x8
   \   00006D   78..         MOV     R0,#?V0 + 0
   \   00006F   12....       LCALL   ?S_SHL
   \   000072   A8..         MOV     R0,?V0 + 0
   \   000074   A9..         MOV     R1,?V0 + 1
   \   000076   7404         MOV     A,#0x4
   \   000078   12....       LCALL   ?XSTACK_DISP0_8
   \   00007B   E8           MOV     A,R0
   \   00007C   F0           MOVX    @DPTR,A
   \   00007D   A3           INC     DPTR
   \   00007E   E9           MOV     A,R1
   \   00007F   F0           MOVX    @DPTR,A
     90              if (data[2] < 0){
   \   000080   C3           CLR     C
   \   000081   E8           MOV     A,R0
   \   000082   9400         SUBB    A,#0x0
   \   000084   E9           MOV     A,R1
   \   000085   65D0         XRL     A,PSW
   \   000087   33           RLC     A
   \   000088   500B         JNC     ??conversion_2
     91                  data[2] = -data[2];
   \   00008A   7404         MOV     A,#0x4
   \   00008C   12....       LCALL   ?XSTACK_DISP0_8
   \   00008F   12....       LCALL   ?Subroutine3 & 0xFFFF
     92                  BUFFER[10] &= ~0x04;
   \                     ??CrossCallReturnLabel_14:
   \   000092   C2E2         CLR     0xE0 /* A   */.2
   \   000094   F0           MOVX    @DPTR,A
     93              }
     94              //计算角度
     95           //   temp = sqrt( data[0] * data[0] + data[1] * data[1] + data[2] * data[2]);
     96              temp = sqrt(2);
   \                     ??conversion_2:
   \   000095                ; Setup parameters for call to function sqrt
   \   000095   90....       MOV     DPTR,#__Constant_40000000
   \   000098   78..         MOV     R0,#?V0 + 0
   \   00009A   12....       LCALL   ?L_MOV_X
   \   00009D   12....       LCALL   ?Subroutine4 & 0xFFFF
     97           //   temp = acos((float)(data[2]) / temp);
     98             temp = acos(1.0 / temp );
   \                     ??CrossCallReturnLabel_15:
   \   0000A0                ; Setup parameters for call to function acos
   \   0000A0   75..00       MOV     ?V0 + 4,#0x0
   \   0000A3   75..00       MOV     ?V0 + 5,#0x0
   \   0000A6   75..80       MOV     ?V0 + 6,#-0x80
   \   0000A9   75..3F       MOV     ?V0 + 7,#0x3f
   \   0000AC   78..         MOV     R0,#?V0 + 4
   \   0000AE   79..         MOV     R1,#?V0 + 0
   \   0000B0   12....       LCALL   ?FLT_DIV
   \   0000B3   AA..         MOV     R2,?V0 + 4
   \   0000B5   AB..         MOV     R3,?V0 + 5
   \   0000B7   AC..         MOV     R4,?V0 + 6
   \   0000B9   AD..         MOV     R5,?V0 + 7
   \   0000BB   12....       LCALL   ??acos?relay
   \   0000BE   8A..         MOV     ?V0 + 0,R2
   \   0000C0   8B..         MOV     ?V0 + 1,R3
   \   0000C2   8C..         MOV     ?V0 + 2,R4
   \   0000C4   8D..         MOV     ?V0 + 3,R5
     99              temp = temp / 3.14 * 180;
   \   0000C6   90....       MOV     DPTR,#__Constant_4048f5c3
   \   0000C9   78..         MOV     R0,#?V0 + 4
   \   0000CB   12....       LCALL   ?L_MOV_X
   \   0000CE   78..         MOV     R0,#?V0 + 0
   \   0000D0   79..         MOV     R1,#?V0 + 4
   \   0000D2   12....       LCALL   ?FLT_DIV
   \   0000D5   90....       MOV     DPTR,#__Constant_43340000
   \   0000D8   78..         MOV     R0,#?V0 + 4
   \   0000DA   12....       LCALL   ?L_MOV_X
   \   0000DD   78..         MOV     R0,#?V0 + 0
   \   0000DF   79..         MOV     R1,#?V0 + 4
   \   0000E1   12....       LCALL   ?FLT_MUL
    100              BUFFER[9] = (INT8U)(temp) / 10 + '0';
   \   0000E4   78..         MOV     R0,#?V0 + 0
   \   0000E6   12....       LCALL   ?FLT_TO_L
   \   0000E9   AA..         MOV     R2,?V0 + 0
   \   0000EB   75F00A       MOV     B,#0xa
   \   0000EE   EA           MOV     A,R2
   \   0000EF   84           DIV     AB
   \   0000F0   2430         ADD     A,#0x30
   \   0000F2   90....       MOV     DPTR,#(BUFFER + 9)
   \   0000F5   F0           MOVX    @DPTR,A
    101              BUFFER[8] = (INT8U)(temp) % 10 + '0';
   \   0000F6   EA           MOV     A,R2
   \   0000F7   75F00A       MOV     B,#0xa
   \   0000FA   84           DIV     AB
   \   0000FB   E5F0         MOV     A,B
   \   0000FD   2430         ADD     A,#0x30
   \   0000FF   90....       MOV     DPTR,#(BUFFER + 8)
   \   000102   F0           MOVX    @DPTR,A
    102              if (sqrt( data[0] * data[0] + data[1] * data[1] + data[2] * data[2]) > 384){
   \   000103   7404         MOV     A,#0x4
   \   000105   12....       LCALL   ?XSTACK_DISP0_8
   \   000108   E0           MOVX    A,@DPTR
   \   000109   F8           MOV     R0,A
   \   00010A   A3           INC     DPTR
   \   00010B   E0           MOVX    A,@DPTR
   \   00010C   F9           MOV     R1,A
   \   00010D   7402         MOV     A,#0x2
   \   00010F   12....       LCALL   ?XSTACK_DISP0_8
   \   000112   E0           MOVX    A,@DPTR
   \   000113   FA           MOV     R2,A
   \   000114   A3           INC     DPTR
   \   000115   E0           MOVX    A,@DPTR
   \   000116   FB           MOV     R3,A
   \   000117                ; Setup parameters for call to function sqrt
   \   000117   85..82       MOV     DPL,?XSP + 0
   \   00011A   85..83       MOV     DPH,?XSP + 1
   \   00011D   E0           MOVX    A,@DPTR
   \   00011E   F5..         MOV     ?V0 + 0,A
   \   000120   FC           MOV     R4,A
   \   000121   A3           INC     DPTR
   \   000122   E0           MOVX    A,@DPTR
   \   000123   FD           MOV     R5,A
   \   000124   EC           MOV     A,R4
   \   000125   F5F0         MOV     B,A
   \   000127   A4           MUL     AB
   \   000128   CC           XCH     A,R4
   \   000129   AEF0         MOV     R6,B
   \   00012B   8DF0         MOV     B,R5
   \   00012D   A4           MUL     AB
   \   00012E   2E           ADD     A,R6
   \   00012F   FE           MOV     R6,A
   \   000130   85..F0       MOV     B,?V0 + 0
   \   000133   ED           MOV     A,R5
   \   000134   A4           MUL     AB
   \   000135   2E           ADD     A,R6
   \   000136   FD           MOV     R5,A
   \   000137   8A..         MOV     ?V0 + 0,R2
   \   000139   EA           MOV     A,R2
   \   00013A   F5F0         MOV     B,A
   \   00013C   A4           MUL     AB
   \   00013D   CA           XCH     A,R2
   \   00013E   AEF0         MOV     R6,B
   \   000140   8BF0         MOV     B,R3
   \   000142   A4           MUL     AB
   \   000143   2E           ADD     A,R6
   \   000144   FE           MOV     R6,A
   \   000145   85..F0       MOV     B,?V0 + 0
   \   000148   EB           MOV     A,R3
   \   000149   A4           MUL     AB
   \   00014A   2E           ADD     A,R6
   \   00014B   FB           MOV     R3,A
   \   00014C   EA           MOV     A,R2
   \   00014D   2C           ADD     A,R4
   \   00014E   FA           MOV     R2,A
   \   00014F   EB           MOV     A,R3
   \   000150   3D           ADDC    A,R5
   \   000151   FB           MOV     R3,A
   \   000152   88..         MOV     ?V0 + 0,R0
   \   000154   E8           MOV     A,R0
   \   000155   F5F0         MOV     B,A
   \   000157   A4           MUL     AB
   \   000158   C8           XCH     A,R0
   \   000159   ACF0         MOV     R4,B
   \   00015B   89F0         MOV     B,R1
   \   00015D   A4           MUL     AB
   \   00015E   2C           ADD     A,R4
   \   00015F   FC           MOV     R4,A
   \   000160   85..F0       MOV     B,?V0 + 0
   \   000163   E9           MOV     A,R1
   \   000164   A4           MUL     AB
   \   000165   2C           ADD     A,R4
   \   000166   F9           MOV     R1,A
   \   000167   E8           MOV     A,R0
   \   000168   2A           ADD     A,R2
   \   000169   F5..         MOV     ?V0 + 0,A
   \   00016B   E9           MOV     A,R1
   \   00016C   3B           ADDC    A,R3
   \   00016D   F5..         MOV     ?V0 + 1,A
   \   00016F   33           RLC     A
   \   000170   95E0         SUBB    A,0xE0 /* A   */
   \   000172   F5..         MOV     ?V0 + 2,A
   \   000174   F5..         MOV     ?V0 + 3,A
   \   000176   78..         MOV     R0,#?V0 + 0
   \   000178   12....       LCALL   ?L_TO_FLT
   \   00017B   12....       LCALL   ?Subroutine4 & 0xFFFF
   \                     ??CrossCallReturnLabel_16:
   \   00017E   90....       MOV     DPTR,#__Constant_43c00001
   \   000181   78..         MOV     R0,#?V0 + 4
   \   000183   12....       LCALL   ?L_MOV_X
   \   000186   78..         MOV     R0,#?V0 + 0
   \   000188   79..         MOV     R1,#?V0 + 4
   \   00018A   12....       LCALL   ?FLT_GE
   \   00018D   5004         JNC     ??conversion_3
    103                  BUFFER[11] = 0xFF; //in danger
   \   00018F   74FF         MOV     A,#-0x1
   \   000191   8002         SJMP    ??conversion_4
    104              } else{
    105                  BUFFER[11] = 0xF0; //safe
   \                     ??conversion_3:
   \   000193   74F0         MOV     A,#-0x10
   \                     ??conversion_4:
   \   000195   90....       MOV     DPTR,#(BUFFER + 11)
   \   000198   F0           MOVX    @DPTR,A
    106              }
    107          }
   \   000199   7406         MOV     A,#0x6
   \   00019B                REQUIRE ?Subroutine16
   \   00019B                ; // Fall through to label ?Subroutine16

   \                                 In  segment BANKED_CODE, align 1, keep-with-next
   \                     ?Subroutine16:
   \   000000   12....       LCALL   ?DEALLOC_XSTACK8
   \   000003   7F08         MOV     R7,#0x8
   \   000005   02....       LJMP    ?BANKED_LEAVE_XDATA

   \                                 In  segment BANKED_CODE, align 1, keep-with-next
   \                     ?Subroutine4:
   \   000000   AA..         MOV     R2,?V0 + 0
   \   000002   AB..         MOV     R3,?V0 + 1
   \   000004   AC..         MOV     R4,?V0 + 2
   \   000006   AD..         MOV     R5,?V0 + 3
   \   000008   12....       LCALL   ??sqrt?relay
   \   00000B   8A..         MOV     ?V0 + 0,R2
   \   00000D   8B..         MOV     ?V0 + 1,R3
   \   00000F   8C..         MOV     ?V0 + 2,R4
   \   000011   8D..         MOV     ?V0 + 3,R5
   \   000013   22           RET

   \                                 In  segment BANKED_CODE, align 1, keep-with-next
   \                     ?Subroutine3:
   \   000000   12....       LCALL   ?Subroutine11 & 0xFFFF
   \                     ??CrossCallReturnLabel_30:
   \   000003   90....       MOV     DPTR,#(BUFFER + 10)
   \   000006   E0           MOVX    A,@DPTR
   \   000007   22           RET

   \                                 In  segment BANKED_CODE, align 1, keep-with-next
   \                     ?Subroutine11:
   \   000000   E0           MOVX    A,@DPTR
   \   000001   F8           MOV     R0,A
   \   000002   C3           CLR     C
   \   000003   E4           CLR     A
   \   000004   98           SUBB    A,R0
   \   000005   F8           MOV     R0,A
   \   000006   E4           CLR     A
   \   000007   99           SUBB    A,R1
   \   000008   F9           MOV     R1,A
   \   000009   E8           MOV     A,R0
   \   00000A   F0           MOVX    @DPTR,A
   \   00000B   A3           INC     DPTR
   \   00000C   E9           MOV     A,R1
   \   00000D   F0           MOVX    @DPTR,A
   \   00000E   22           RET

   \                                 In  segment BANKED_CODE, align 1, keep-with-next
   \                     ?Subroutine2:
   \   000000   AC..         MOV     R4,?V0 + 4
   \   000002   AD..         MOV     R5,?V0 + 5
   \   000004   C3           CLR     C
   \   000005   EB           MOV     A,R3
   \                     ??Subroutine2_0:
   \   000006   9400         SUBB    A,#0x0
   \   000008   A2D2         MOV     C,0xD0 /* PSW */.2
   \   00000A   65D0         XRL     A,PSW
   \   00000C   33           RLC     A
   \   00000D   22           RET
    108          

   \                                 In  segment BANKED_CODE, align 1, keep-with-next
    109          void I2C_Start_1(void)
   \                     I2C_Start_1:
    110          {
   \   000000   C082         PUSH    DPL
   \   000002   C083         PUSH    DPH
   \   000004                ; Saved register size: 2
   \   000004                ; Auto size: 0
    111              /*启动I2C总线的函数，当SCL为高电平时使SDA产生一个负跳变*/
    112              SDADirOut;
   \   000004   12....       LCALL   ?Subroutine9 & 0xFFFF
    113              Delay_1u(1);
    114              SDA=1;
   \                     ??CrossCallReturnLabel_35:
   \   000007   D293         SETB    0x90.3
    115              SCL=1;
   \   000009   D292         SETB    0x90.2
    116              Delay_1u(5);
   \   00000B                ; Setup parameters for call to function Delay_1u
   \   00000B   7A05         MOV     R2,#0x5
   \   00000D   7B00         MOV     R3,#0x0
   \   00000F   12....       LCALL   ??Delay_1u?relay
    117              SDA=0;
   \   000012   C293         CLR     0x90.3
    118              Delay_1u(5);
   \   000014                ; Setup parameters for call to function Delay_1u
   \   000014   7A05         MOV     R2,#0x5
   \   000016   7B00         MOV     R3,#0x0
   \   000018   12....       LCALL   ??Delay_1u?relay
    119              SCL=0;
   \   00001B   C292         CLR     0x90.2
    120              Delay_1u(5);
   \   00001D                ; Setup parameters for call to function Delay_1u
   \   00001D   02....       LJMP    ?Subroutine14 & 0xFFFF
   \   000020                REQUIRE _A_P1
   \   000020                REQUIRE P1DIR
    121          }

   \                                 In  segment BANKED_CODE, align 1, keep-with-next
   \                     ?Subroutine9:
   \   000000   43FE08       ORL     0xfe,#0x8
   \   000003                ; Setup parameters for call to function Delay_1u
   \   000003                ; Setup parameters for call to function Delay_1u
   \   000003   7A01         MOV     R2,#0x1
   \   000005                REQUIRE ?Subroutine15
   \   000005                ; // Fall through to label ?Subroutine15

   \                                 In  segment BANKED_CODE, align 1, keep-with-next
   \                     ?Subroutine15:
   \   000000   7B00         MOV     R3,#0x0
   \   000002   12....       LCALL   ??Delay_1u?relay
   \   000005   22           RET

   \                                 In  segment BANKED_CODE, align 1, keep-with-next
   \                     ?Subroutine14:
   \   000000   7A05         MOV     R2,#0x5
   \   000002   7B00         MOV     R3,#0x0
   \   000004   12....       LCALL   ??Delay_1u?relay
   \                     ??Subroutine14_0:
   \   000007   D083         POP     DPH
   \   000009   D082         POP     DPL
   \   00000B   02....       LJMP    ?BRET
    122          

   \                                 In  segment BANKED_CODE, align 1, keep-with-next
    123          void I2C_Stop_1(void)
   \                     I2C_Stop_1:
    124          {
   \   000000   C082         PUSH    DPL
   \   000002   C083         PUSH    DPH
   \   000004                ; Saved register size: 2
   \   000004                ; Auto size: 0
    125              /*终止I2C总线，当SCL为高电平时使SDA产生一个正跳变*/
    126              SCL=0;
   \   000004   C292         CLR     0x90.2
    127              Delay_1u(1);
   \   000006                ; Setup parameters for call to function Delay_1u
   \   000006   7A01         MOV     R2,#0x1
   \   000008   7B00         MOV     R3,#0x0
   \   00000A   12....       LCALL   ??Delay_1u?relay
    128              SDADirOut;
   \   00000D   12....       LCALL   ?Subroutine9 & 0xFFFF
    129              Delay_1u(1);
    130              SDA=0;
   \                     ??CrossCallReturnLabel_36:
   \   000010   C293         CLR     0x90.3
    131              Delay_1u(5);
   \   000012                ; Setup parameters for call to function Delay_1u
   \   000012   12....       LCALL   ?Subroutine7 & 0xFFFF
    132              SCL=1;
    133              Delay_1u(5);
    134              SDA=1;
   \                     ??CrossCallReturnLabel_22:
   \   000015   D293         SETB    0x90.3
    135              Delay_1u(5);
   \   000017                ; Setup parameters for call to function Delay_1u
   \   000017   80..         SJMP    ?Subroutine14
   \   000019                REQUIRE _A_P1
   \   000019                REQUIRE P1DIR
    136          }

   \                                 In  segment BANKED_CODE, align 1, keep-with-next
   \                     ?Subroutine7:
   \   000000   7A05         MOV     R2,#0x5
   \                     ??Subroutine7_0:
   \   000002   12....       LCALL   ?Subroutine12 & 0xFFFF
   \                     ??CrossCallReturnLabel_33:
   \   000005   22           RET

   \                                 In  segment BANKED_CODE, align 1, keep-with-next
   \                     ?Subroutine12:
   \   000000   7B00         MOV     R3,#0x0
   \   000002   12....       LCALL   ??Delay_1u?relay
   \   000005   D292         SETB    0x90.2
   \   000007                ; Setup parameters for call to function Delay_1u
   \   000007                ; Setup parameters for call to function Delay_1u
   \   000007                ; Setup parameters for call to function Delay_1u
   \   000007                ; Setup parameters for call to function Delay_1u
   \   000007                ; Setup parameters for call to function Delay_1u
   \   000007   7A05         MOV     R2,#0x5
   \   000009   80..         SJMP    ?Subroutine15
    137          

   \                                 In  segment BANKED_CODE, align 1, keep-with-next
    138          void Sendack(unsigned char h){
   \                     Sendack:
   \   000000   74F7         MOV     A,#-0x9
   \   000002   12....       LCALL   ?BANKED_ENTER_XDATA
   \   000005                ; Saved register size: 9
   \   000005                ; Auto size: 0
   \   000005   E9           MOV     A,R1
   \   000006   FE           MOV     R6,A
    139              SCL=0;
   \   000007   C292         CLR     0x90.2
    140              Delay_1u(5);
   \   000009                ; Setup parameters for call to function Delay_1u
   \   000009   7A05         MOV     R2,#0x5
   \   00000B   7B00         MOV     R3,#0x0
   \   00000D   12....       LCALL   ??Delay_1u?relay
    141              SDADirOut;
   \   000010   43FE08       ORL     0xfe,#0x8
    142              Delay(5);
   \   000013                ; Setup parameters for call to function Delay
   \   000013   7A05         MOV     R2,#0x5
   \   000015   7B00         MOV     R3,#0x0
   \   000017   12....       LCALL   ??Delay?relay
    143              SDA=h&0x01;
   \   00001A   EE           MOV     A,R6
   \   00001B   A2E0         MOV     C,0xE0 /* A   */.0
   \   00001D   9293         MOV     0x90.3,C
    144              Delay_1u(5);
   \   00001F                ; Setup parameters for call to function Delay_1u
   \   00001F   12....       LCALL   ?Subroutine7 & 0xFFFF
    145              SCL=1;
    146              Delay_1u(5);
    147              SCL=0;
   \                     ??CrossCallReturnLabel_23:
   \   000022   C292         CLR     0x90.2
    148              Delay_1u(5);
   \   000024                ; Setup parameters for call to function Delay_1u
   \   000024   7A05         MOV     R2,#0x5
   \   000026   7B00         MOV     R3,#0x0
   \   000028   12....       LCALL   ??Delay_1u?relay
    149          }
   \   00002B   80..         SJMP    ??Subroutine17_0
   \   00002D                REQUIRE _A_P1
   \   00002D                REQUIRE P1DIR

   \                                 In  segment BANKED_CODE, align 1, keep-with-next
   \                     ?Subroutine17:
   \   000000   F9           MOV     R1,A
   \                     ??Subroutine17_0:
   \   000001   7F01         MOV     R7,#0x1
   \   000003   02....       LJMP    ?BANKED_LEAVE_XDATA
    150          

   \                                 In  segment BANKED_CODE, align 1, keep-with-next
    151          INT8U I2C_Check_ack(void){
   \                     I2C_Check_ack:
   \   000000   C082         PUSH    DPL
   \   000002   C083         PUSH    DPH
   \   000004                ; Saved register size: 2
   \   000004                ; Auto size: 0
    152              SCL=0;
   \   000004   C292         CLR     0x90.2
    153              Delay_1u(5);
   \   000006                ; Setup parameters for call to function Delay_1u
   \   000006   7A05         MOV     R2,#0x5
   \   000008   7B00         MOV     R3,#0x0
   \   00000A   12....       LCALL   ??Delay_1u?relay
    154              SDADirOut;
   \   00000D   43FE08       ORL     0xfe,#0x8
    155              SDA=1;
   \   000010   D293         SETB    0x90.3
    156              SDADirIn;
   \   000012   53FEF7       ANL     0xfe,#0xf7
    157              Delay_1u(5);          //此处是否有必要使SDA先拉高？！？！
   \   000015                ; Setup parameters for call to function Delay_1u
   \   000015   12....       LCALL   ?Subroutine6 & 0xFFFF
    158              SCL=1;
    159              Delay_1u(5);
    160              if(SDA==1)
   \                     ??CrossCallReturnLabel_20:
   \   000018   C292         CLR     0x90.2
   \   00001A   5004         JNC     ??I2C_Check_ack_0
    161              {
    162                  SCL=0;
    163                  return 0;  //er
   \   00001C   7900         MOV     R1,#0x0
   \   00001E   8002         SJMP    ??I2C_Check_ack_1
    164              }
    165              SCL=0;
    166              return 1;
   \                     ??I2C_Check_ack_0:
   \   000020   7901         MOV     R1,#0x1
   \                     ??I2C_Check_ack_1:
   \   000022   80..         SJMP    ??Subroutine14_0
   \   000024                REQUIRE _A_P1
   \   000024                REQUIRE P1DIR
    167          }

   \                                 In  segment BANKED_CODE, align 1, keep-with-next
   \                     ?Subroutine6:
   \   000000   7A05         MOV     R2,#0x5
   \   000002   12....       LCALL   ?Subroutine12 & 0xFFFF
   \                     ??CrossCallReturnLabel_34:
   \   000005   A293         MOV     C,0x90.3
   \   000007   22           RET
    168          
    169          
    170          
    171          

   \                                 In  segment BANKED_CODE, align 1, keep-with-next
    172          void WriteI2CByte_1(unsigned char b)
   \                     WriteI2CByte_1:
    173          {
   \   000000   74F7         MOV     A,#-0x9
   \   000002   12....       LCALL   ?BANKED_ENTER_XDATA
   \   000005                ; Saved register size: 9
   \   000005                ; Auto size: 0
   \   000005   E9           MOV     A,R1
   \   000006   FE           MOV     R6,A
    174              /*向I2C总线写一个字节*/
    175              unsigned char e=8;
   \   000007   7F08         MOV     R7,#0x8
    176              SDADirOut;
   \   000009   43FE08       ORL     0xfe,#0x8
   \   00000C   800A         SJMP    ??CrossCallReturnLabel_24
    177              while(e--){
    178                  SCL=0;
    179                  Delay_1u(5);
    180                  if(b&0x80)SDA=1;
    181                  else SDA=0;
   \                     ??WriteI2CByte_1_0:
   \   00000E   C293         CLR     0x90.3
    182                  b<<=1;
   \                     ??WriteI2CByte_1_1:
   \   000010   C3           CLR     C
   \   000011   33           RLC     A
   \   000012   FE           MOV     R6,A
    183                  Delay_1u(3);
   \   000013                ; Setup parameters for call to function Delay_1u
   \   000013   7A03         MOV     R2,#0x3
   \   000015   12....       LCALL   ??Subroutine7_0 & 0xFFFF
    184                  SCL=1;
    185                  Delay_1u(5);
   \                     ??CrossCallReturnLabel_24:
   \   000018   EF           MOV     A,R7
   \   000019   1F           DEC     R7
   \   00001A   C292         CLR     0x90.2
   \   00001C   6010         JZ      ??WriteI2CByte_1_2
   \   00001E                ; Setup parameters for call to function Delay_1u
   \   00001E   7A05         MOV     R2,#0x5
   \   000020   7B00         MOV     R3,#0x0
   \   000022   12....       LCALL   ??Delay_1u?relay
   \   000025   EE           MOV     A,R6
   \   000026   A2E7         MOV     C,0xE0 /* A   */.7
   \   000028   50E4         JNC     ??WriteI2CByte_1_0
   \   00002A   D293         SETB    0x90.3
   \   00002C   80E2         SJMP    ??WriteI2CByte_1_1
    186              }
    187              SCL=0;
    188              I2C_Check_ack();
   \                     ??WriteI2CByte_1_2:
   \   00002E                ; Setup parameters for call to function I2C_Check_ack
   \   00002E   12....       LCALL   ??I2C_Check_ack?relay
    189          }
   \   000031   80..         SJMP    ??Subroutine17_0
   \   000033                REQUIRE _A_P1
   \   000033                REQUIRE P1DIR
    190          

   \                                 In  segment BANKED_CODE, align 1, keep-with-next
    191          unsigned char ReadI2CByte_1(void)
   \                     ReadI2CByte_1:
    192          {
   \   000000   74F7         MOV     A,#-0x9
   \   000002   12....       LCALL   ?BANKED_ENTER_XDATA
   \   000005                ; Saved register size: 9
   \   000005                ; Auto size: 0
    193              /*从I2C总线读一个字节*/
    194              unsigned char i=8;
   \   000005   7E08         MOV     R6,#0x8
    195              unsigned char c=0;
   \   000007   7F00         MOV     R7,#0x0
    196              SCL=0;
   \   000009   C292         CLR     0x90.2
    197              SDADirOut;
   \   00000B   43FE08       ORL     0xfe,#0x8
    198              SDA=1;
   \   00000E   D293         SETB    0x90.3
    199              Delay_1u(3);
   \   000010                ; Setup parameters for call to function Delay_1u
   \   000010   7A03         MOV     R2,#0x3
   \   000012   7B00         MOV     R3,#0x0
   \   000014   12....       LCALL   ??Delay_1u?relay
    200              SDADirIn;
   \   000017   53FEF7       ANL     0xfe,#0xf7
   \   00001A   8003         SJMP    ??ReadI2CByte_1_0
    201              while(i--){
    202                  c<<=1;
    203                  SCL=0;
    204                  Delay_1u(5);
    205                  SCL=1;
    206                  Delay_1u(5);
    207                  if(SDA==1)c|=0x01;
   \                     ??ReadI2CByte_1_1:
   \   00001C   D2E0         SETB    0xE0 /* A   */.0
   \                     ??ReadI2CByte_1_2:
   \   00001E   FF           MOV     R7,A
   \                     ??ReadI2CByte_1_0:
   \   00001F   EE           MOV     A,R6
   \   000020   1E           DEC     R6
   \   000021   6010         JZ      ??ReadI2CByte_1_3
   \   000023   EF           MOV     A,R7
   \   000024   C3           CLR     C
   \   000025   33           RLC     A
   \   000026   FF           MOV     R7,A
   \   000027   C292         CLR     0x90.2
   \   000029                ; Setup parameters for call to function Delay_1u
   \   000029   12....       LCALL   ?Subroutine6 & 0xFFFF
   \                     ??CrossCallReturnLabel_21:
   \   00002C   EF           MOV     A,R7
   \   00002D   40ED         JC      ??ReadI2CByte_1_1
    208                  else c&=0xfe;
   \   00002F   C2E0         CLR     0xE0 /* A   */.0
   \   000031   80EB         SJMP    ??ReadI2CByte_1_2
    209              }
    210              SCL=0;
   \                     ??ReadI2CByte_1_3:
   \   000033   C292         CLR     0x90.2
    211              SDADirOut;
   \   000035   43FE08       ORL     0xfe,#0x8
    212              return c;
   \   000038   EF           MOV     A,R7
   \   000039   02....       LJMP    ?Subroutine17 & 0xFFFF
   \   00003C                REQUIRE _A_P1
   \   00003C                REQUIRE P1DIR
    213          }
    214          //******单字节写入*******************************************
    215          

   \                                 In  segment BANKED_CODE, align 1, keep-with-next
    216          void Single_Write_ADXL345(INT8U REG_Address,INT8U REG_data)
   \                     Single_Write_ADXL345:
    217          {
   \   000000   74F7         MOV     A,#-0x9
   \   000002   12....       LCALL   ?BANKED_ENTER_XDATA
   \   000005                ; Saved register size: 9
   \   000005                ; Auto size: 0
   \   000005   E9           MOV     A,R1
   \   000006   FE           MOV     R6,A
   \   000007   EA           MOV     A,R2
   \   000008   FF           MOV     R7,A
    218              I2C_Start_1();                  //起始信号
   \   000009                ; Setup parameters for call to function I2C_Start_1
   \   000009   12....       LCALL   ?Subroutine8 & 0xFFFF
    219              WriteI2CByte_1(SlaveAddress);   //发送设备地址+写信号
    220              WriteI2CByte_1(REG_Address);    //内部寄存器地址，请参考中文pdf22页
    221              WriteI2CByte_1(REG_data);       //内部寄存器数据，请参考中文pdf22页
   \                     ??CrossCallReturnLabel_25:
   \   00000C                ; Setup parameters for call to function WriteI2CByte_1
   \   00000C   EF           MOV     A,R7
   \   00000D   F9           MOV     R1,A
   \   00000E   12....       LCALL   ??WriteI2CByte_1?relay
    222              I2C_Stop_1();                   //发送停止信号
   \   000011                ; Setup parameters for call to function I2C_Stop_1
   \   000011   12....       LCALL   ??I2C_Stop_1?relay
    223          }
   \   000014   02....       LJMP    ??Subroutine17_0 & 0xFFFF

   \                                 In  segment BANKED_CODE, align 1, keep-with-next
   \                     ?Subroutine8:
   \   000000   12....       LCALL   ?Subroutine13 & 0xFFFF
   \                     ??CrossCallReturnLabel_31:
   \   000003                ; Setup parameters for call to function WriteI2CByte_1
   \   000003                ; Setup parameters for call to function WriteI2CByte_1
   \   000003   EE           MOV     A,R6
   \   000004   F9           MOV     R1,A
   \   000005   12....       LCALL   ??WriteI2CByte_1?relay
   \   000008   22           RET

   \                                 In  segment BANKED_CODE, align 1, keep-with-next
   \                     ?Subroutine13:
   \   000000   12....       LCALL   ??I2C_Start_1?relay
   \   000003                ; Setup parameters for call to function WriteI2CByte_1
   \   000003                ; Setup parameters for call to function WriteI2CByte_1
   \   000003                ; Setup parameters for call to function WriteI2CByte_1
   \   000003   79A6         MOV     R1,#-0x5a
   \   000005   12....       LCALL   ??WriteI2CByte_1?relay
   \   000008   22           RET
    224          
    225          //********单字节读取*****************************************

   \                                 In  segment BANKED_CODE, align 1, keep-with-next
    226          unsigned char Single_Read_ADXL345(INT8U REG_Address)
   \                     Single_Read_ADXL345:
    227          {  INT8U REG_data;
   \   000000   74F7         MOV     A,#-0x9
   \   000002   12....       LCALL   ?BANKED_ENTER_XDATA
   \   000005                ; Saved register size: 9
   \   000005                ; Auto size: 0
   \   000005   E9           MOV     A,R1
   \   000006   FE           MOV     R6,A
    228              I2C_Start_1();                          //起始信号
   \   000007                ; Setup parameters for call to function I2C_Start_1
   \   000007   12....       LCALL   ?Subroutine8 & 0xFFFF
    229              WriteI2CByte_1(SlaveAddress);           //发送设备地址+写信号
    230              WriteI2CByte_1(REG_Address);                   //发送存储单元地址，从0开始
    231              I2C_Start_1();                          //起始信号
   \                     ??CrossCallReturnLabel_26:
   \   00000A                ; Setup parameters for call to function I2C_Start_1
   \   00000A   12....       LCALL   ?Subroutine10 & 0xFFFF
    232              WriteI2CByte_1(SlaveAddress+1);         //发送设备地址+读信号
    233              REG_data=ReadI2CByte_1();              //读出寄存器数据
   \                     ??CrossCallReturnLabel_27:
   \   00000D                ; Setup parameters for call to function ReadI2CByte_1
   \   00000D   12....       LCALL   ??ReadI2CByte_1?relay
   \   000010   E9           MOV     A,R1
   \   000011   FE           MOV     R6,A
    234              Sendack(1);
   \   000012                ; Setup parameters for call to function Sendack
   \   000012   7901         MOV     R1,#0x1
   \   000014   12....       LCALL   ??Sendack?relay
    235              I2C_Stop_1();                           //停止信号
   \   000017                ; Setup parameters for call to function I2C_Stop_1
   \   000017   12....       LCALL   ??I2C_Stop_1?relay
    236              return REG_data;
   \   00001A   EE           MOV     A,R6
   \   00001B   02....       LJMP    ?Subroutine17 & 0xFFFF
    237          }

   \                                 In  segment BANKED_CODE, align 1, keep-with-next
   \                     ?Subroutine10:
   \   000000   12....       LCALL   ??I2C_Start_1?relay
   \   000003                ; Setup parameters for call to function WriteI2CByte_1
   \   000003                ; Setup parameters for call to function WriteI2CByte_1
   \   000003   79A7         MOV     R1,#-0x59
   \   000005   12....       LCALL   ??WriteI2CByte_1?relay
   \   000008   22           RET
    238          

   \                                 In  segment BANKED_CODE, align 1, keep-with-next
    239          void Init_ADXL345()
   \                     Init_ADXL345:
    240          {
   \   000000   C082         PUSH    DPL
   \   000002   C083         PUSH    DPH
   \   000004                ; Saved register size: 2
   \   000004                ; Auto size: 0
    241              P1DIR = 0x0C;
   \   000004   75FE0C       MOV     0xfe,#0xc
    242              Single_Write_ADXL345(0x31,0x0B);   //测量范围,正负16g，13位模式
   \   000007                ; Setup parameters for call to function Single_Write_ADXL345
   \   000007   7A0B         MOV     R2,#0xb
   \   000009   7931         MOV     R1,#0x31
   \   00000B   12....       LCALL   ??Single_Write_ADXL345?relay
    243              Single_Write_ADXL345(0x2C,0x0F);   //速率设定为12.5 参考pdf13页
   \   00000E                ; Setup parameters for call to function Single_Write_ADXL345
   \   00000E   7A0F         MOV     R2,#0xf
   \   000010   792C         MOV     R1,#0x2c
   \   000012   12....       LCALL   ??Single_Write_ADXL345?relay
    244              Single_Write_ADXL345(0x2D,0x08);   //选择电源模式   参考pdf24页
   \   000015                ; Setup parameters for call to function Single_Write_ADXL345
   \   000015   7A08         MOV     R2,#0x8
   \   000017   792D         MOV     R1,#0x2d
   \   000019   12....       LCALL   ??Single_Write_ADXL345?relay
    245              Single_Write_ADXL345(0x2E,0x80);   //使能 DATA_READY 中断
   \   00001C                ; Setup parameters for call to function Single_Write_ADXL345
   \   00001C   7A80         MOV     R2,#-0x80
   \   00001E   792E         MOV     R1,#0x2e
   \   000020   12....       LCALL   ??Single_Write_ADXL345?relay
    246              Single_Write_ADXL345(0x1E,0x00);   //X 偏移量 根据测试传感器的状态写入pdf29页
   \   000023                ; Setup parameters for call to function Single_Write_ADXL345
   \   000023   7A00         MOV     R2,#0x0
   \   000025   791E         MOV     R1,#0x1e
   \   000027   12....       LCALL   ??Single_Write_ADXL345?relay
    247              Single_Write_ADXL345(0x1F,0x00);   //Y 偏移量 根据测试传感器的状态写入pdf29页
   \   00002A                ; Setup parameters for call to function Single_Write_ADXL345
   \   00002A   7A00         MOV     R2,#0x0
   \   00002C   791F         MOV     R1,#0x1f
   \   00002E   12....       LCALL   ??Single_Write_ADXL345?relay
    248              Single_Write_ADXL345(0x20,0x05);   //Z 偏移量 根据测试传感器的状态写入pdf29页
   \   000031                ; Setup parameters for call to function Single_Write_ADXL345
   \   000031   7A05         MOV     R2,#0x5
   \   000033   7920         MOV     R1,#0x20
   \   000035   12....       LCALL   ??Single_Write_ADXL345?relay
    249          }
   \   000038   02....       LJMP    ??Subroutine14_0 & 0xFFFF
   \   00003B                REQUIRE P1DIR
    250          
    251          //*********************************************************
    252          //
    253          //连续读出ADXL345内部加速度数据，地址范围0x32~0x37
    254          //
    255          //*********************************************************

   \                                 In  segment BANKED_CODE, align 1, keep-with-next
    256          void Multiple_Read_ADXL345(void)
   \                     Multiple_Read_ADXL345:
    257          {   INT8U f;
   \   000000   74F6         MOV     A,#-0xa
   \   000002   12....       LCALL   ?BANKED_ENTER_XDATA
   \   000005                ; Saved register size: 10
   \   000005                ; Auto size: 0
    258              I2C_Start_1();                          //起始信号
   \   000005                ; Setup parameters for call to function I2C_Start_1
   \   000005   12....       LCALL   ?Subroutine13 & 0xFFFF
    259              WriteI2CByte_1(SlaveAddress);           //发送设备地址+写信号
    260              WriteI2CByte_1(0x32);                   //发送存储单元地址，从0x32开始
   \                     ??CrossCallReturnLabel_32:
   \   000008                ; Setup parameters for call to function WriteI2CByte_1
   \   000008   7932         MOV     R1,#0x32
   \   00000A   12....       LCALL   ??WriteI2CByte_1?relay
    261              I2C_Start_1();                          //起始信号
   \   00000D                ; Setup parameters for call to function I2C_Start_1
   \   00000D   12....       LCALL   ?Subroutine10 & 0xFFFF
    262              WriteI2CByte_1(SlaveAddress+1);         //发送设备地址+读信号
    263              for (f=0; f<6; f++)                      //连续读取6个地址数据，存储中BUF
   \                     ??CrossCallReturnLabel_28:
   \   000010   7E00         MOV     R6,#0x0
    264              {
    265                  POS_TEMP[f] = ReadI2CByte_1();          //BUF[0]存储0x32地址中的数据
   \                     ??Multiple_Read_ADXL345_0:
   \   000012                ; Setup parameters for call to function ReadI2CByte_1
   \   000012   12....       LCALL   ??ReadI2CByte_1?relay
   \   000015   8E..         MOV     ?V0 + 0,R6
   \   000017   E5..         MOV     A,?V0 + 0
   \   000019   24..         ADD     A,#(POS_TEMP & 0xff)
   \   00001B   F582         MOV     DPL,A
   \   00001D   E4           CLR     A
   \   00001E   34..         ADDC    A,#((POS_TEMP >> 8) & 0xff)
   \   000020   F583         MOV     DPH,A
   \   000022   E9           MOV     A,R1
   \   000023   F0           MOVX    @DPTR,A
    266                  if (f == 5)
   \   000024   7405         MOV     A,#0x5
   \   000026   6E           XRL     A,R6
   \   000027   7004         JNZ     ??Multiple_Read_ADXL345_1
    267                  {
    268                      Sendack(1);                //最后一个数据需要回NOACK
   \   000029                ; Setup parameters for call to function Sendack
   \   000029   7901         MOV     R1,#0x1
   \   00002B   8002         SJMP    ??Multiple_Read_ADXL345_2
    269                  }
    270                  else
    271                  {
    272                      Sendack(0);                //回应ACK
   \                     ??Multiple_Read_ADXL345_1:
   \   00002D                ; Setup parameters for call to function Sendack
   \   00002D   7900         MOV     R1,#0x0
   \                     ??Multiple_Read_ADXL345_2:
   \   00002F   12....       LCALL   ??Sendack?relay
    273                  }
    274              }
   \   000032   0E           INC     R6
   \   000033   EE           MOV     A,R6
   \   000034   C3           CLR     C
   \   000035   9406         SUBB    A,#0x6
   \   000037   40D9         JC      ??Multiple_Read_ADXL345_0
    275              I2C_Stop_1();                          //停止信号
   \   000039                ; Setup parameters for call to function I2C_Stop_1
   \   000039   12....       LCALL   ??I2C_Stop_1?relay
    276          }
   \   00003C   7F02         MOV     R7,#0x2
   \   00003E   02....       LJMP    ?BANKED_LEAVE_XDATA
    277          

   \                                 In  segment BANKED_CODE, align 1, keep-with-next
    278          void displayXYZ(INT8U *pData){
   \                     displayXYZ:
   \   000000   74F0         MOV     A,#-0x10
   \   000002   12....       LCALL   ?BANKED_ENTER_XDATA
   \   000005                ; Saved register size: 16
   \   000005                ; Auto size: 0
   \   000005   EA           MOV     A,R2
   \   000006   FE           MOV     R6,A
   \   000007   EB           MOV     A,R3
   \   000008   FF           MOV     R7,A
    279              int  dis_data;
    280              uint16 temp;
    281              dis_data=(pData[1]<<8)+pData[0];
   \   000009   8E82         MOV     DPL,R6
   \   00000B   8F83         MOV     DPH,R7
   \   00000D   12....       LCALL   ??Subroutine5_0 & 0xFFFF
   \                     ??CrossCallReturnLabel_17:
   \   000010   12....       LCALL   ??Subroutine0_0 & 0xFFFF
    282              temp=(uint16)((float)dis_data*3.9);  //计算数据和显示,查考ADXL345快速入门第4页
   \                     ??CrossCallReturnLabel_2:
   \   000013   12....       LCALL   ?L_TO_FLT
   \   000016   90....       MOV     DPTR,#__Constant_4079999a
   \   000019   78..         MOV     R0,#?V0 + 0
   \   00001B   12....       LCALL   ?L_MOV_X
   \   00001E   78..         MOV     R0,#?V0 + 4
   \   000020   79..         MOV     R1,#?V0 + 0
   \   000022   12....       LCALL   ?FLT_MUL
   \   000025   78..         MOV     R0,#?V0 + 4
   \   000027   12....       LCALL   ?FLT_TO_L
   \   00002A   12....       LCALL   ?Subroutine2 & 0xFFFF
    283              if(dis_data<0){
   \                     ??CrossCallReturnLabel_8:
   \   00002D   75..00       MOV     ?V0 + 0,#0x0
   \   000030   78..         MOV     R0,#?V0 + 0
   \   000032   500B         JNC     ??displayXYZ_0
    284                  dis_data=-dis_data;
    285                  HalLcdWriteStringValue("X: -",temp,10,0);
   \   000034                ; Setup parameters for call to function HalLcdWriteStringValue
   \   000034   12....       LCALL   ?PUSH_XSTACK_I_ONE
   \   000037   790A         MOV     R1,#0xa
   \   000039   7A..         MOV     R2,#(`?<Constant "X: -">` & 0xff)
   \   00003B   7B..         MOV     R3,#((`?<Constant "X: -">` >> 8) & 0xff)
   \   00003D   8009         SJMP    ??displayXYZ_1
    286              }
    287              else
    288              {
    289                  HalLcdWriteStringValue("X:  ",temp,10,0);
   \                     ??displayXYZ_0:
   \   00003F                ; Setup parameters for call to function HalLcdWriteStringValue
   \   00003F   12....       LCALL   ?PUSH_XSTACK_I_ONE
   \   000042   790A         MOV     R1,#0xa
   \   000044   7A..         MOV     R2,#(`?<Constant "X:  ">` & 0xff)
   \   000046   7B..         MOV     R3,#((`?<Constant "X:  ">` >> 8) & 0xff)
   \                     ??displayXYZ_1:
   \   000048   12....       LCALL   ??HalLcdWriteStringValue?relay
   \   00004B   7401         MOV     A,#0x1
   \   00004D   12....       LCALL   ?DEALLOC_XSTACK8
    290              }
    291              dis_data=(pData[3]<<8)+pData[2];  //合成数据
   \   000050   8E82         MOV     DPL,R6
   \   000052   8F83         MOV     DPH,R7
   \   000054   12....       LCALL   ?Subroutine5 & 0xFFFF
   \                     ??CrossCallReturnLabel_18:
   \   000057   12....       LCALL   ?Subroutine0 & 0xFFFF
    292              temp=(uint16)((float)dis_data*3.9);  //计算数据和显示,查考ADXL345快速入门第4页
   \                     ??CrossCallReturnLabel_0:
   \   00005A   12....       LCALL   ?L_TO_FLT
   \   00005D   90....       MOV     DPTR,#__Constant_4079999a
   \   000060   78..         MOV     R0,#?V0 + 0
   \   000062   12....       LCALL   ?L_MOV_X
   \   000065   78..         MOV     R0,#?V0 + 4
   \   000067   79..         MOV     R1,#?V0 + 0
   \   000069   12....       LCALL   ?FLT_MUL
   \   00006C   78..         MOV     R0,#?V0 + 4
   \   00006E   12....       LCALL   ?FLT_TO_L
   \   000071   12....       LCALL   ?Subroutine2 & 0xFFFF
    293              if(dis_data<0){
   \                     ??CrossCallReturnLabel_9:
   \   000074   75..01       MOV     ?V0 + 0,#0x1
   \   000077   78..         MOV     R0,#?V0 + 0
   \   000079   500B         JNC     ??displayXYZ_2
    294                  dis_data=-dis_data;
    295                  HalLcdWriteStringValue("Y: -",temp,10,1);
   \   00007B                ; Setup parameters for call to function HalLcdWriteStringValue
   \   00007B   12....       LCALL   ?PUSH_XSTACK_I_ONE
   \   00007E   790A         MOV     R1,#0xa
   \   000080   7A..         MOV     R2,#(`?<Constant "Y: -">` & 0xff)
   \   000082   7B..         MOV     R3,#((`?<Constant "Y: -">` >> 8) & 0xff)
   \   000084   8009         SJMP    ??displayXYZ_3
    296              }
    297              else
    298              {
    299                  HalLcdWriteStringValue("Y:  ",temp,10,1);
   \                     ??displayXYZ_2:
   \   000086                ; Setup parameters for call to function HalLcdWriteStringValue
   \   000086   12....       LCALL   ?PUSH_XSTACK_I_ONE
   \   000089   790A         MOV     R1,#0xa
   \   00008B   7A..         MOV     R2,#(`?<Constant "Y:  ">` & 0xff)
   \   00008D   7B..         MOV     R3,#((`?<Constant "Y:  ">` >> 8) & 0xff)
   \                     ??displayXYZ_3:
   \   00008F   12....       LCALL   ??HalLcdWriteStringValue?relay
   \   000092   7401         MOV     A,#0x1
   \   000094   12....       LCALL   ?DEALLOC_XSTACK8
    300              }
    301              dis_data=(pData[5]<<8)+pData[4];    //合成数据
   \   000097   8E82         MOV     DPL,R6
   \   000099   8F83         MOV     DPH,R7
   \   00009B   A3           INC     DPTR
   \   00009C   A3           INC     DPTR
   \   00009D   12....       LCALL   ?Subroutine5 & 0xFFFF
   \                     ??CrossCallReturnLabel_19:
   \   0000A0   A3           INC     DPTR
   \   0000A1   A3           INC     DPTR
   \   0000A2   12....       LCALL   ?Subroutine0 & 0xFFFF
    302              temp=(uint16)((float)dis_data*3.9);  //计算数据和显示,查考ADXL345快速入门第4页
   \                     ??CrossCallReturnLabel_1:
   \   0000A5   12....       LCALL   ?L_TO_FLT
   \   0000A8   90....       MOV     DPTR,#__Constant_4079999a
   \   0000AB   78..         MOV     R0,#?V0 + 0
   \   0000AD   12....       LCALL   ?L_MOV_X
   \   0000B0   78..         MOV     R0,#?V0 + 4
   \   0000B2   79..         MOV     R1,#?V0 + 0
   \   0000B4   12....       LCALL   ?FLT_MUL
   \   0000B7   78..         MOV     R0,#?V0 + 4
   \   0000B9   12....       LCALL   ?FLT_TO_L
   \   0000BC   12....       LCALL   ?Subroutine2 & 0xFFFF
    303              if(dis_data<0){
   \                     ??CrossCallReturnLabel_10:
   \   0000BF   75..02       MOV     ?V0 + 0,#0x2
   \   0000C2   78..         MOV     R0,#?V0 + 0
   \   0000C4   500B         JNC     ??displayXYZ_4
    304                  dis_data=-dis_data;
    305                  HalLcdWriteStringValue("Z: -",temp,10,2);
   \   0000C6                ; Setup parameters for call to function HalLcdWriteStringValue
   \   0000C6   12....       LCALL   ?PUSH_XSTACK_I_ONE
   \   0000C9   790A         MOV     R1,#0xa
   \   0000CB   7A..         MOV     R2,#(`?<Constant "Z: -">` & 0xff)
   \   0000CD   7B..         MOV     R3,#((`?<Constant "Z: -">` >> 8) & 0xff)
   \   0000CF   8009         SJMP    ??displayXYZ_5
    306              }
    307              else
    308              {
    309                  HalLcdWriteStringValue("Z:  ",temp,10,2);
   \                     ??displayXYZ_4:
   \   0000D1                ; Setup parameters for call to function HalLcdWriteStringValue
   \   0000D1   12....       LCALL   ?PUSH_XSTACK_I_ONE
   \   0000D4   790A         MOV     R1,#0xa
   \   0000D6   7A..         MOV     R2,#(`?<Constant "Z:  ">` & 0xff)
   \   0000D8   7B..         MOV     R3,#((`?<Constant "Z:  ">` >> 8) & 0xff)
   \                     ??displayXYZ_5:
   \   0000DA   12....       LCALL   ??HalLcdWriteStringValue?relay
   \   0000DD   7401         MOV     A,#0x1
   \   0000DF   02....       LJMP    ?Subroutine16 & 0xFFFF
    310              }
    311          }

   \                                 In  segment BANKED_CODE, align 1, keep-with-next
   \                     ?Subroutine5:
   \   000000   A3           INC     DPTR
   \   000001   A3           INC     DPTR
   \                     ??Subroutine5_0:
   \   000002   A3           INC     DPTR
   \   000003   E0           MOVX    A,@DPTR
   \   000004   F9           MOV     R1,A
   \   000005   8E82         MOV     DPL,R6
   \   000007   8F83         MOV     DPH,R7
   \   000009   22           RET

   \                                 In  segment BANKED_CODE, align 1, keep-with-next
   \                     ?Subroutine0:
   \   000000   A3           INC     DPTR
   \   000001   A3           INC     DPTR
   \                     ??Subroutine0_0:
   \   000002   E0           MOVX    A,@DPTR
   \   000003   2400         ADD     A,#0x0
   \   000005   FA           MOV     R2,A
   \   000006   E4           CLR     A
   \   000007   39           ADDC    A,R1
   \   000008   FB           MOV     R3,A
   \   000009   8A..         MOV     ?V0 + 4,R2
   \   00000B   F5..         MOV     ?V0 + 5,A
   \   00000D   33           RLC     A
   \   00000E   95E0         SUBB    A,0xE0 /* A   */
   \   000010   F5..         MOV     ?V0 + 6,A
   \   000012   F5..         MOV     ?V0 + 7,A
   \   000014   78..         MOV     R0,#?V0 + 4
   \   000016   22           RET

   \                                 In  segment XDATA_ID, align 1, keep-with-next
   \                     `?<Initializer for <Constant "X: -">>`:
   \   000000   583A202D     DB "X: -"
   \            00      

   \                                 In  segment XDATA_ID, align 1, keep-with-next
   \                     `?<Initializer for <Constant "X:  ">>`:
   \   000000   583A2020     DB "X:  "
   \            00      

   \                                 In  segment XDATA_ID, align 1, keep-with-next
   \                     `?<Initializer for <Constant "Y: -">>`:
   \   000000   593A202D     DB "Y: -"
   \            00      

   \                                 In  segment XDATA_ID, align 1, keep-with-next
   \                     `?<Initializer for <Constant "Y:  ">>`:
   \   000000   593A2020     DB "Y:  "
   \            00      

   \                                 In  segment XDATA_ID, align 1, keep-with-next
   \                     `?<Initializer for <Constant "Z: -">>`:
   \   000000   5A3A202D     DB "Z: -"
   \            00      

   \                                 In  segment XDATA_ID, align 1, keep-with-next
   \                     `?<Initializer for <Constant "Z:  ">>`:
   \   000000   5A3A2020     DB "Z:  "
   \            00      

   \                                 In  segment XDATA_ID, align 1, keep-with-next
   \                     `?<Initializer for __Constant_40000000>`:
   \   000000   00000040     DD 40000000H

   \                                 In  segment XDATA_ID, align 1, keep-with-next
   \                     `?<Initializer for __Constant_4048f5c3>`:
   \   000000   C3F54840     DD 4048F5C3H

   \                                 In  segment XDATA_ID, align 1, keep-with-next
   \                     `?<Initializer for __Constant_43340000>`:
   \   000000   00003443     DD 43340000H

   \                                 In  segment XDATA_ID, align 1, keep-with-next
   \                     `?<Initializer for __Constant_43c00001>`:
   \   000000   0100C043     DD 43C00001H

   \                                 In  segment XDATA_ID, align 1, keep-with-next
   \                     `?<Initializer for __Constant_4079999a>`:
   \   000000   9A997940     DD 4079999AH

   \                                 In  segment BANK_RELAYS, align 1
   \                     ??Delay?relay:
   \   000000   12....       LCALL   ?BDISPATCH
   \   000003   ......       DC24    Delay

   \                                 In  segment BANK_RELAYS, align 1
   \                     ??Delay_1u?relay:
   \   000000   12....       LCALL   ?BDISPATCH
   \   000003   ......       DC24    Delay_1u

   \                                 In  segment BANK_RELAYS, align 1
   \                     ??conversion?relay:
   \   000000   12....       LCALL   ?BDISPATCH
   \   000003   ......       DC24    conversion

   \                                 In  segment BANK_RELAYS, align 1
   \                     ??I2C_Start_1?relay:
   \   000000   12....       LCALL   ?BDISPATCH
   \   000003   ......       DC24    I2C_Start_1

   \                                 In  segment BANK_RELAYS, align 1
   \                     ??I2C_Stop_1?relay:
   \   000000   12....       LCALL   ?BDISPATCH
   \   000003   ......       DC24    I2C_Stop_1

   \                                 In  segment BANK_RELAYS, align 1
   \                     ??Sendack?relay:
   \   000000   12....       LCALL   ?BDISPATCH
   \   000003   ......       DC24    Sendack

   \                                 In  segment BANK_RELAYS, align 1
   \                     ??I2C_Check_ack?relay:
   \   000000   12....       LCALL   ?BDISPATCH
   \   000003   ......       DC24    I2C_Check_ack

   \                                 In  segment BANK_RELAYS, align 1
   \                     ??WriteI2CByte_1?relay:
   \   000000   12....       LCALL   ?BDISPATCH
   \   000003   ......       DC24    WriteI2CByte_1

   \                                 In  segment BANK_RELAYS, align 1
   \                     ??ReadI2CByte_1?relay:
   \   000000   12....       LCALL   ?BDISPATCH
   \   000003   ......       DC24    ReadI2CByte_1

   \                                 In  segment BANK_RELAYS, align 1
   \                     ??Single_Write_ADXL345?relay:
   \   000000   12....       LCALL   ?BDISPATCH
   \   000003   ......       DC24    Single_Write_ADXL345

   \                                 In  segment BANK_RELAYS, align 1
   \                     ??Single_Read_ADXL345?relay:
   \   000000   12....       LCALL   ?BDISPATCH
   \   000003   ......       DC24    Single_Read_ADXL345

   \                                 In  segment BANK_RELAYS, align 1
   \                     ??Init_ADXL345?relay:
   \   000000   12....       LCALL   ?BDISPATCH
   \   000003   ......       DC24    Init_ADXL345

   \                                 In  segment BANK_RELAYS, align 1
   \                     ??Multiple_Read_ADXL345?relay:
   \   000000   12....       LCALL   ?BDISPATCH
   \   000003   ......       DC24    Multiple_Read_ADXL345

   \                                 In  segment BANK_RELAYS, align 1
   \                     ??displayXYZ?relay:
   \   000000   12....       LCALL   ?BDISPATCH
   \   000003   ......       DC24    displayXYZ

   \                                 In  segment XDATA_I, align 1, keep-with-next
   \                     `?<Constant "X: -">`:
   \   000000                DS 5
   \   000005                REQUIRE `?<Initializer for <Constant "X: -">>`
   \   000005                REQUIRE __INIT_XDATA_I

   \                                 In  segment XDATA_I, align 1, keep-with-next
   \                     `?<Constant "X:  ">`:
   \   000000                DS 5
   \   000005                REQUIRE `?<Initializer for <Constant "X:  ">>`
   \   000005                REQUIRE __INIT_XDATA_I

   \                                 In  segment XDATA_I, align 1, keep-with-next
   \                     `?<Constant "Y: -">`:
   \   000000                DS 5
   \   000005                REQUIRE `?<Initializer for <Constant "Y: -">>`
   \   000005                REQUIRE __INIT_XDATA_I

   \                                 In  segment XDATA_I, align 1, keep-with-next
   \                     `?<Constant "Y:  ">`:
   \   000000                DS 5
   \   000005                REQUIRE `?<Initializer for <Constant "Y:  ">>`
   \   000005                REQUIRE __INIT_XDATA_I

   \                                 In  segment XDATA_I, align 1, keep-with-next
   \                     `?<Constant "Z: -">`:
   \   000000                DS 5
   \   000005                REQUIRE `?<Initializer for <Constant "Z: -">>`
   \   000005                REQUIRE __INIT_XDATA_I

   \                                 In  segment XDATA_I, align 1, keep-with-next
   \                     `?<Constant "Z:  ">`:
   \   000000                DS 5
   \   000005                REQUIRE `?<Initializer for <Constant "Z:  ">>`
   \   000005                REQUIRE __INIT_XDATA_I

   \                                 In  segment XDATA_I, align 1, keep-with-next
   \                     __Constant_40000000:
   \   000000                DS 4
   \   000004                REQUIRE `?<Initializer for __Constant_40000000>`
   \   000004                REQUIRE __INIT_XDATA_I

   \                                 In  segment XDATA_I, align 1, keep-with-next
   \                     __Constant_4048f5c3:
   \   000000                DS 4
   \   000004                REQUIRE `?<Initializer for __Constant_4048f5c3>`
   \   000004                REQUIRE __INIT_XDATA_I

   \                                 In  segment XDATA_I, align 1, keep-with-next
   \                     __Constant_43340000:
   \   000000                DS 4
   \   000004                REQUIRE `?<Initializer for __Constant_43340000>`
   \   000004                REQUIRE __INIT_XDATA_I

   \                                 In  segment XDATA_I, align 1, keep-with-next
   \                     __Constant_43c00001:
   \   000000                DS 4
   \   000004                REQUIRE `?<Initializer for __Constant_43c00001>`
   \   000004                REQUIRE __INIT_XDATA_I

   \                                 In  segment XDATA_I, align 1, keep-with-next
   \                     __Constant_4079999a:
   \   000000                DS 4
   \   000004                REQUIRE `?<Initializer for __Constant_4079999a>`
   \   000004                REQUIRE __INIT_XDATA_I

   Maximum stack usage in bytes:

     Function                    ISTACK PSTACK XSTACK
     --------                    ------ ------ ------
     Delay                           0      0      9
     Delay_1u                        0      0      9
     I2C_Check_ack                   2      0      9
       -> Delay_1u                   4      0      0
       -> Delay_1u                   4      0      0
       -> Delay_1u                   4      0      0
     I2C_Start_1                     2      0     10
       -> Delay_1u                   4      0      0
       -> Delay_1u                   4      0      0
       -> Delay_1u                   4      0      0
       -> Delay_1u                   4      0      0
     I2C_Stop_1                      2      0     10
       -> Delay_1u                   4      0      0
       -> Delay_1u                   4      0      0
       -> Delay_1u                   4      0      0
       -> Delay_1u                   4      0      0
       -> Delay_1u                   4      0      0
     Init_ADXL345                    2      0      0
       -> Single_Write_ADXL345       4      0      0
       -> Single_Write_ADXL345       4      0      0
       -> Single_Write_ADXL345       4      0      0
       -> Single_Write_ADXL345       4      0      0
       -> Single_Write_ADXL345       4      0      0
       -> Single_Write_ADXL345       4      0      0
       -> Single_Write_ADXL345       4      0      0
     Multiple_Read_ADXL345           1      0     10
       -> I2C_Start_1                0      0     20
       -> WriteI2CByte_1             0      0     20
       -> WriteI2CByte_1             0      0     20
       -> I2C_Start_1                0      0     20
       -> WriteI2CByte_1             0      0     20
       -> ReadI2CByte_1              0      0     20
       -> Sendack                    0      0     20
       -> Sendack                    0      0     20
       -> I2C_Stop_1                 0      0     20
     ReadI2CByte_1                   0      0     19
       -> Delay_1u                   0      0     18
       -> Delay_1u                   0      0     18
       -> Delay_1u                   0      0     18
     Sendack                         0      0     19
       -> Delay_1u                   0      0     18
       -> Delay                      0      0     18
       -> Delay_1u                   0      0     18
       -> Delay_1u                   0      0     18
       -> Delay_1u                   0      0     18
     Single_Read_ADXL345             0      0      9
       -> I2C_Start_1                0      0     18
       -> WriteI2CByte_1             0      0     18
       -> WriteI2CByte_1             0      0     18
       -> I2C_Start_1                0      0     18
       -> WriteI2CByte_1             0      0     18
       -> ReadI2CByte_1              0      0     18
       -> Sendack                    0      0     18
       -> I2C_Stop_1                 0      0     18
     Single_Write_ADXL345            0      0      9
       -> I2C_Start_1                0      0     18
       -> WriteI2CByte_1             0      0     18
       -> WriteI2CByte_1             0      0     18
       -> WriteI2CByte_1             0      0     18
       -> I2C_Stop_1                 0      0     18
     WriteI2CByte_1                  0      0     19
       -> Delay_1u                   0      0     18
       -> Delay_1u                   0      0     18
       -> Delay_1u                   0      0     18
       -> I2C_Check_ack              0      0     18
     conversion                      0      0     22
       -> sqrt                       0      0     44
       -> acos                       0      0     44
       -> sqrt                       0      0     44
     displayXYZ                      0      0     17
       -> HalLcdWriteStringValue     0      0     34
       -> HalLcdWriteStringValue     0      0     34
       -> HalLcdWriteStringValue     0      0     34
       -> HalLcdWriteStringValue     0      0     34
       -> HalLcdWriteStringValue     0      0     34
       -> HalLcdWriteStringValue     0      0     34


   Segment part sizes:

     Function/Label                 Bytes
     --------------                 -----
     _A_P1                             1
     P1DIR                             1
     BUFFER                           12
     POS_TEMP                          6
     dis_data                          2
     wan                               1
     qian                              1
     bai                               1
     shi                               1
     ge                                1
     Delay                            83
     ?Subroutine1                      9
     Delay_1u                         55
     conversion                      411
     ?Subroutine16                     8
     ?Subroutine4                     20
     ?Subroutine3                      8
     ?Subroutine11                    15
     ?Subroutine2                     14
     I2C_Start_1                      32
     ?Subroutine9                      5
     ?Subroutine15                     6
     ?Subroutine14                    14
     I2C_Stop_1                       25
     ?Subroutine7                      6
     ?Subroutine12                    11
     Sendack                          45
     ?Subroutine17                     6
     I2C_Check_ack                    36
     ?Subroutine6                      8
     WriteI2CByte_1                   51
     ReadI2CByte_1                    60
     Single_Write_ADXL345             23
     ?Subroutine8                      9
     ?Subroutine13                     9
     Single_Read_ADXL345              30
     ?Subroutine10                     9
     Init_ADXL345                     59
     Multiple_Read_ADXL345            65
     displayXYZ                      226
     ?Subroutine5                     10
     ?Subroutine0                     23
     ?<Initializer for <Constant "X: -">>
                                       5
     ?<Initializer for <Constant "X:  ">>
                                       5
     ?<Initializer for <Constant "Y: -">>
                                       5
     ?<Initializer for <Constant "Y:  ">>
                                       5
     ?<Initializer for <Constant "Z: -">>
                                       5
     ?<Initializer for <Constant "Z:  ">>
                                       5
     ?<Initializer for __Constant_40000000>
                                       4
     ?<Initializer for __Constant_4048f5c3>
                                       4
     ?<Initializer for __Constant_43340000>
                                       4
     ?<Initializer for __Constant_43c00001>
                                       4
     ?<Initializer for __Constant_4079999a>
                                       4
     ??Delay?relay                     6
     ??Delay_1u?relay                  6
     ??conversion?relay                6
     ??I2C_Start_1?relay               6
     ??I2C_Stop_1?relay                6
     ??Sendack?relay                   6
     ??I2C_Check_ack?relay             6
     ??WriteI2CByte_1?relay            6
     ??ReadI2CByte_1?relay             6
     ??Single_Write_ADXL345?relay      6
     ??Single_Read_ADXL345?relay       6
     ??Init_ADXL345?relay              6
     ??Multiple_Read_ADXL345?relay     6
     ??displayXYZ?relay                6
     ?<Constant "X: -">                5
     ?<Constant "X:  ">                5
     ?<Constant "Y: -">                5
     ?<Constant "Y:  ">                5
     ?<Constant "Z: -">                5
     ?<Constant "Z:  ">                5
     __Constant_40000000               4
     __Constant_4048f5c3               4
     __Constant_43340000               4
     __Constant_43c00001               4
     __Constant_4079999a               4

 
 1 391 bytes in segment BANKED_CODE
    84 bytes in segment BANK_RELAYS
     2 bytes in segment SFR_AN
    50 bytes in segment XDATA_I
    50 bytes in segment XDATA_ID
    25 bytes in segment XDATA_Z
 
 1 505 bytes of CODE  memory (+ 20 bytes shared)
     0 bytes of DATA  memory (+  2 bytes shared)
    55 bytes of XDATA memory (+ 20 bytes shared)

Errors: none
Warnings: none
