///////////////////////////////////////////////////////////////////////////////
//                                                                            /
// IAR 8051 C/C++ Compiler V7.30B/W32                   24/Mar/2013  16:31:43 /
// Copyright 2004-2007 IAR Systems. All rights reserved.                      /
//                                                                            /
//    Core               =  plain                                             /
//    Code model         =  banked                                            /
//    Data model         =  large                                             /
//    Calling convention =  xdata reentrant                                   /
//    Constant location  =  data                                              /
//    Dptr setup         =  1,16                                              /
//    Source file        =  C:\Texas Instruments\ZStack-1.4.3-1.2.1\Projects\ /
//                          zstack\Samples\cc2430-zstack-adxl345\Drivers\adxl /
//                          345.c                                             /
//    Command line       =  -f "C:\Texas Instruments\ZStack-1.4.3-1.2.1\Proje /
//                          cts\zstack\Samples\cc2430-zstack-adxl345\CC2430DB /
//                          \..\..\..\Tools\CC2430DB\f8wCoord.cfg"            /
//                          (-DCPU32MHZ -DFORCE_MAC_NEAR -DROOT=__near_func   /
//                          -DMAC_CFG_APP_PENDING_QUEUE=TRUE                  /
//                          -DZDO_COORDINATOR -DRTR_NWK -DBLINK_LEDS          /
//                          "-DCONST=const __code" -DGENERIC=__generic) -f    /
//                          "C:\Texas Instruments\ZStack-1.4.3-1.2.1\Projects /
//                          \zstack\Samples\cc2430-zstack-adxl345\CC2430DB\.. /
//                          \..\..\Tools\CC2430DB\f8wConfig.cfg" (-DSECURE=0  /
//                          -DDEFAULT_CHANLIST=0x00000800                     /
//                          -DZDAPP_CONFIG_PAN_ID=0xFFFF                      /
//                          -DNWK_START_DELAY=100 -DEXTENDED_JOINING_RANDOM_M /
//                          ASK=0x007F -DBEACON_REQUEST_DELAY=100             /
//                          -DBEACON_REQ_DELAY_MASK=0x00FF                    /
//                          -DROUTE_EXPIRY_TIME=30 -DAPSC_ACK_WAIT_DURATION_P /
//                          OLLED=3000 -DNWK_INDIRECT_MSG_TIMEOUT=7           /
//                          -DMAX_RREQ_ENTRIES=10 -DAPSC_MAX_FRAME_RETRIES=3  /
//                          -DNWK_MAX_DATA_RETRIES=2                          /
//                          -DMAX_POLL_FAILURE_RETRIES=2 -DMAX_BCAST=9        /
//                          -DAPS_MAX_GROUPS=16 -DMAX_RTG_ENTRIES=20          /
//                          -DNWK_MAX_BINDING_ENTRIES=10                      /
//                          -DMAX_BINDING_CLUSTER_IDS=5                       /
//                          "-DDEFAULT_KEY={0x01, 0x03, 0x05, 0x07, 0x09,     /
//                          0x0B, 0x0D, 0x0F, 0x00, 0x02, 0x04, 0x06, 0x08,   /
//                          0x0A, 0x0C, 0x0D}" -DRFD_RCVC_ALWAYS_ON=FALSE     /
//                          -DPOLL_RATE=1000 -DQUEUED_POLL_RATE=100           /
//                          -DRESPONSE_POLL_RATE=100) -DREJOIN_POLL_RATE=440  /
//                          "C:\Texas Instruments\ZStack-1.4.3-1.2.1\Projects /
//                          \zstack\Samples\cc2430-zstack-adxl345\Drivers\adx /
//                          l345.c" -D CC2430EB -D REFLECTOR -D HAL_UART -D   /
//                          xZTOOL_P1 -D AXD_COR -D MT_TASK -D xMT_ZDO_FUNC   /
//                          -D LCD_SUPPORTED=DEBUG -lC "C:\Texas              /
//                          Instruments\ZStack-1.4.3-1.2.1\Projects\zstack\Sa /
//                          mples\cc2430-zstack-adxl345\CC2430DB\CoordinatorE /
//                          B\List\" -lA "C:\Texas Instruments\ZStack-1.4.3-1 /
//                          .2.1\Projects\zstack\Samples\cc2430-zstack-adxl34 /
//                          5\CC2430DB\CoordinatorEB\List\" --diag_suppress   /
//                          Pe001,Pa010 --diag_remark pe550 -o "C:\Texas      /
//                          Instruments\ZStack-1.4.3-1.2.1\Projects\zstack\Sa /
//                          mples\cc2430-zstack-adxl345\CC2430DB\CoordinatorE /
//                          B\Obj\" -e --require_prototypes -z9               /
//                          --no_code_motion --debug --core=plain             /
//                          --dptr=16,1 --data_model=large                    /
//                          --code_model=banked --calling_convention=xdata_re /
//                          entrant --place_constants=data --nr_virtual_regs  /
//                          8 -I "C:\Texas Instruments\ZStack-1.4.3-1.2.1\Pro /
//                          jects\zstack\Samples\cc2430-zstack-adxl345\CC2430 /
//                          DB\" -I "C:\Texas Instruments\ZStack-1.4.3-1.2.1\ /
//                          Projects\zstack\Samples\cc2430-zstack-adxl345\CC2 /
//                          430DB\..\SOURCE\" -I "C:\Texas                    /
//                          Instruments\ZStack-1.4.3-1.2.1\Projects\zstack\Sa /
//                          mples\cc2430-zstack-adxl345\CC2430DB\..\Drivers\" /
//                           -I "C:\Texas Instruments\ZStack-1.4.3-1.2.1\Proj /
//                          ects\zstack\Samples\cc2430-zstack-adxl345\CC2430D /
//                          B\..\..\..\ZMAIN\TI2430DB\" -I "C:\Texas          /
//                          Instruments\ZStack-1.4.3-1.2.1\Projects\zstack\Sa /
//                          mples\cc2430-zstack-adxl345\CC2430DB\..\..\..\..\ /
//                          ..\COMPONENTS\MT\" -I "C:\Texas                   /
//                          Instruments\ZStack-1.4.3-1.2.1\Projects\zstack\Sa /
//                          mples\cc2430-zstack-adxl345\CC2430DB\..\..\..\..\ /
//                          ..\COMPONENTS\HAL\INCLUDE\" -I "C:\Texas          /
//                          Instruments\ZStack-1.4.3-1.2.1\Projects\zstack\Sa /
//                          mples\cc2430-zstack-adxl345\CC2430DB\..\..\..\..\ /
//                          ..\COMPONENTS\HAL\TARGET\CC2430EB\" -I "C:\Texas  /
//                          Instruments\ZStack-1.4.3-1.2.1\Projects\zstack\Sa /
//                          mples\cc2430-zstack-adxl345\CC2430DB\..\..\..\..\ /
//                          ..\COMPONENTS\OSAL\MCU\CCSOC\" -I "C:\Texas       /
//                          Instruments\ZStack-1.4.3-1.2.1\Projects\zstack\Sa /
//                          mples\cc2430-zstack-adxl345\CC2430DB\..\..\..\..\ /
//                          ..\COMPONENTS\OSAL\INCLUDE\" -I "C:\Texas         /
//                          Instruments\ZStack-1.4.3-1.2.1\Projects\zstack\Sa /
//                          mples\cc2430-zstack-adxl345\CC2430DB\..\..\..\..\ /
//                          ..\COMPONENTS\STACK\AF\" -I "C:\Texas             /
//                          Instruments\ZStack-1.4.3-1.2.1\Projects\zstack\Sa /
//                          mples\cc2430-zstack-adxl345\CC2430DB\..\..\..\..\ /
//                          ..\COMPONENTS\STACK\NWK\" -I "C:\Texas            /
//                          Instruments\ZStack-1.4.3-1.2.1\Projects\zstack\Sa /
//                          mples\cc2430-zstack-adxl345\CC2430DB\..\..\..\..\ /
//                          ..\COMPONENTS\STACK\SEC\" -I "C:\Texas            /
//                          Instruments\ZStack-1.4.3-1.2.1\Projects\zstack\Sa /
//                          mples\cc2430-zstack-adxl345\CC2430DB\..\..\..\..\ /
//                          ..\COMPONENTS\STACK\SYS\" -I "C:\Texas            /
//                          Instruments\ZStack-1.4.3-1.2.1\Projects\zstack\Sa /
//                          mples\cc2430-zstack-adxl345\CC2430DB\..\..\..\..\ /
//                          ..\COMPONENTS\STACK\ZDO\" -I "C:\Texas            /
//                          Instruments\ZStack-1.4.3-1.2.1\Projects\zstack\Sa /
//                          mples\cc2430-zstack-adxl345\CC2430DB\..\..\..\..\ /
//                          ..\COMPONENTS\ZMAC\F8W\" -I "C:\Texas             /
//                          Instruments\ZStack-1.4.3-1.2.1\Projects\zstack\Sa /
//                          mples\cc2430-zstack-adxl345\CC2430DB\..\..\..\..\ /
//                          ..\COMPONENTS\ZMAC\" -I "C:\Texas                 /
//                          Instruments\ZStack-1.4.3-1.2.1\Projects\zstack\Sa /
//                          mples\cc2430-zstack-adxl345\CC2430DB\..\..\..\..\ /
//                          ..\COMPONENTS\SERVICES\SADDR\" -I "C:\Texas       /
//                          Instruments\ZStack-1.4.3-1.2.1\Projects\zstack\Sa /
//                          mples\cc2430-zstack-adxl345\CC2430DB\..\..\..\..\ /
//                          ..\COMPONENTS\SERVICES\SDATA\" -I "C:\Texas       /
//                          Instruments\ZStack-1.4.3-1.2.1\Projects\zstack\Sa /
//                          mples\cc2430-zstack-adxl345\CC2430DB\..\..\..\..\ /
//                          ..\COMPONENTS\MAC\INCLUDE\" -I "C:\Texas          /
//                          Instruments\ZStack-1.4.3-1.2.1\Projects\zstack\Sa /
//                          mples\cc2430-zstack-adxl345\CC2430DB\..\..\..\..\ /
//                          ..\COMPONENTS\MAC\HIGH_LEVEL\" -I "C:\Texas       /
//                          Instruments\ZStack-1.4.3-1.2.1\Projects\zstack\Sa /
//                          mples\cc2430-zstack-adxl345\CC2430DB\..\..\..\..\ /
//                          ..\COMPONENTS\MAC\LOW_LEVEL\SRF03\" -I "C:\Texas  /
//                          Instruments\ZStack-1.4.3-1.2.1\Projects\zstack\Sa /
//                          mples\cc2430-zstack-adxl345\CC2430DB\..\..\..\..\ /
//                          ..\COMPONENTS\MAC\LOW_LEVEL\SRF03\SINGLE_CHIP\"   /
//                          -I "C:\Program Files\IAR Systems\Embedded         /
//                          Workbench 4.0 Evaluation version\8051\INC\" -I    /
//                          "C:\Program Files\IAR Systems\Embedded Workbench  /
//                          4.0 Evaluation version\8051\INC\CLIB\"            /
//    List file          =  C:\Texas Instruments\ZStack-1.4.3-1.2.1\Projects\ /
//                          zstack\Samples\cc2430-zstack-adxl345\CC2430DB\Coo /
//                          rdinatorEB\List\adxl345.s51                       /
//                                                                            /
//                                                                            /
///////////////////////////////////////////////////////////////////////////////

        NAME adxl345

        RTMODEL "__calling_convention", "xdata_reentrant"
        RTMODEL "__code_model", "banked"
        RTMODEL "__core", "plain"
        RTMODEL "__data_model", "large"
        RTMODEL "__dptr_size", "16"
        RTMODEL "__extended_stack", "disabled"
        RTMODEL "__location_for_constants", "data"
        RTMODEL "__number_of_dptrs", "1"
        RTMODEL "__rt_version", "1"

        RSEG DOVERLAY:DATA:NOROOT(0)
        RSEG IOVERLAY:IDATA:NOROOT(0)
        RSEG ISTACK:IDATA:NOROOT(0)
        RSEG PSTACK:XDATA:NOROOT(0)
        RSEG XSTACK:XDATA:NOROOT(0)

        EXTERN ??Delay?relay
        EXTERN ??Delay_1u?relay
        EXTERN ??I2C_Check_ack?relay
        EXTERN ??I2C_Start_1?relay
        EXTERN ??I2C_Stop_1?relay
        EXTERN ??ReadI2CByte_1?relay
        EXTERN ??Sendack?relay
        EXTERN ??Single_Write_ADXL345?relay
        EXTERN ??WriteI2CByte_1?relay
        EXTERN ?ALLOC_XSTACK8
        EXTERN ?BANKED_ENTER_XDATA
        EXTERN ?BANKED_LEAVE_XDATA
        EXTERN ?BDISPATCH
        EXTERN ?BRET
        EXTERN ?DEALLOC_XSTACK8
        EXTERN ?FLT_DIV
        EXTERN ?FLT_GE
        EXTERN ?FLT_MUL
        EXTERN ?FLT_TO_L
        EXTERN ?L_MOV_X
        EXTERN ?L_TO_FLT
        EXTERN ?PUSH_XSTACK_I_ONE
        EXTERN ?S_SHL
        EXTERN ?V0
        EXTERN ?XSP
        EXTERN ?XSTACK_DISP0_8
        EXTERN __INIT_XDATA_I
        EXTERN __INIT_XDATA_Z

        PUBLIC ??Delay?relay
        FUNCTION ??Delay?relay,0203H
        PUBLIC ??Delay_1u?relay
        FUNCTION ??Delay_1u?relay,0203H
        PUBLIC ??I2C_Check_ack?relay
        FUNCTION ??I2C_Check_ack?relay,0203H
        PUBLIC ??I2C_Start_1?relay
        FUNCTION ??I2C_Start_1?relay,0203H
        PUBLIC ??I2C_Stop_1?relay
        FUNCTION ??I2C_Stop_1?relay,0203H
        PUBLIC ??Init_ADXL345?relay
        FUNCTION ??Init_ADXL345?relay,0203H
        PUBLIC ??Multiple_Read_ADXL345?relay
        FUNCTION ??Multiple_Read_ADXL345?relay,0203H
        PUBLIC ??ReadI2CByte_1?relay
        FUNCTION ??ReadI2CByte_1?relay,0203H
        PUBLIC ??Sendack?relay
        FUNCTION ??Sendack?relay,0203H
        PUBLIC ??Single_Read_ADXL345?relay
        FUNCTION ??Single_Read_ADXL345?relay,0203H
        PUBLIC ??Single_Write_ADXL345?relay
        FUNCTION ??Single_Write_ADXL345?relay,0203H
        PUBLIC ??WriteI2CByte_1?relay
        FUNCTION ??WriteI2CByte_1?relay,0203H
        PUBLIC ??conversion?relay
        FUNCTION ??conversion?relay,0203H
        PUBLIC ??displayXYZ?relay
        FUNCTION ??displayXYZ?relay,0203H
        PUBLIC BUFFER
        PUBLIC Delay
        FUNCTION Delay,0203H
        ARGFRAME XSTACK, 9, STACK
        ARGFRAME IOVERLAY, 0, STATIC
        ARGFRAME DOVERLAY, 0, STATIC
        PUBLIC Delay_1u
        FUNCTION Delay_1u,080203H
        ARGFRAME XSTACK, 9, STACK
        ARGFRAME IOVERLAY, 0, STATIC
        ARGFRAME DOVERLAY, 0, STATIC
        PUBLIC I2C_Check_ack
        FUNCTION I2C_Check_ack,021203H
        ARGFRAME XSTACK, 9, STACK
        ARGFRAME IOVERLAY, 0, STATIC
        ARGFRAME DOVERLAY, 0, STATIC
        LOCFRAME ISTACK, 2, STACK
        PUBLIC I2C_Start_1
        FUNCTION I2C_Start_1,021203H
        ARGFRAME XSTACK, 10, STACK
        ARGFRAME IOVERLAY, 0, STATIC
        ARGFRAME DOVERLAY, 0, STATIC
        LOCFRAME ISTACK, 2, STACK
        PUBLIC I2C_Stop_1
        FUNCTION I2C_Stop_1,021203H
        ARGFRAME XSTACK, 10, STACK
        ARGFRAME IOVERLAY, 0, STATIC
        ARGFRAME DOVERLAY, 0, STATIC
        LOCFRAME ISTACK, 2, STACK
        PUBLIC Init_ADXL345
        FUNCTION Init_ADXL345,021203H
        ARGFRAME XSTACK, 0, STACK
        LOCFRAME ISTACK, 2, STACK
        PUBLIC Multiple_Read_ADXL345
        FUNCTION Multiple_Read_ADXL345,021203H
        ARGFRAME XSTACK, 0, STACK
        LOCFRAME ISTACK, 1, STACK
        LOCFRAME XSTACK, 10, STACK
        PUBWEAK P1DIR
        PUBLIC POS_TEMP
        PUBLIC ReadI2CByte_1
        FUNCTION ReadI2CByte_1,021203H
        ARGFRAME XSTACK, 10, STACK
        ARGFRAME IOVERLAY, 0, STATIC
        ARGFRAME DOVERLAY, 0, STATIC
        LOCFRAME XSTACK, 9, STACK
        PUBLIC Sendack
        FUNCTION Sendack,021203H
        ARGFRAME XSTACK, 10, STACK
        ARGFRAME IOVERLAY, 0, STATIC
        ARGFRAME DOVERLAY, 0, STATIC
        LOCFRAME XSTACK, 9, STACK
        PUBLIC Single_Read_ADXL345
        FUNCTION Single_Read_ADXL345,021203H
        ARGFRAME XSTACK, 0, STACK
        LOCFRAME XSTACK, 9, STACK
        PUBLIC Single_Write_ADXL345
        FUNCTION Single_Write_ADXL345,021203H
        ARGFRAME XSTACK, 0, STACK
        ARGFRAME IOVERLAY, 0, STATIC
        ARGFRAME DOVERLAY, 0, STATIC
        LOCFRAME XSTACK, 9, STACK
        PUBLIC WriteI2CByte_1
        FUNCTION WriteI2CByte_1,021203H
        ARGFRAME XSTACK, 10, STACK
        ARGFRAME IOVERLAY, 0, STATIC
        ARGFRAME DOVERLAY, 0, STATIC
        LOCFRAME XSTACK, 9, STACK
        PUBWEAK _A_P1
        PUBWEAK __Constant_40000000
        PUBWEAK __Constant_4048f5c3
        PUBWEAK __Constant_4079999a
        PUBWEAK __Constant_43340000
        PUBWEAK __Constant_43c00001
        PUBLIC bai
        PUBLIC conversion
        FUNCTION conversion,021203H
        ARGFRAME XSTACK, 0, STACK
        LOCFRAME XSTACK, 22, STACK
        PUBLIC dis_data
        PUBLIC displayXYZ
        FUNCTION displayXYZ,021203H
        ARGFRAME XSTACK, 0, STACK
        LOCFRAME XSTACK, 17, STACK
        PUBLIC `ge`
        PUBLIC qian
        PUBLIC shi
        PUBLIC wan
        
        CFI Names cfiNames0
        CFI StackFrame CFA_SP SP DATA
        CFI StackFrame CFA_PSP16 PSP16 XDATA
        CFI StackFrame CFA_XSP16 XSP16 XDATA
        CFI StaticOverlayFrame CFA_IOVERLAY IOVERLAY
        CFI StaticOverlayFrame CFA_DOVERLAY DOVERLAY
        CFI Resource `PSW.CY`:1, `B.BR0`:1, `B.BR1`:1, `B.BR2`:1, `B.BR3`:1
        CFI Resource `B.BR4`:1, `B.BR5`:1, `B.BR6`:1, `B.BR7`:1, `VB.BR8`:1
        CFI Resource `VB.BR9`:1, `VB.BR10`:1, `VB.BR11`:1, `VB.BR12`:1
        CFI Resource `VB.BR13`:1, `VB.BR14`:1, `VB.BR15`:1, VB:8, B:8, A:8
        CFI Resource PSW:8, DPL0:8, DPH0:8, R0:8, R1:8, R2:8, R3:8, R4:8, R5:8
        CFI Resource R6:8, R7:8, V0:8, V1:8, V2:8, V3:8, V4:8, V5:8, V6:8, V7:8
        CFI Resource SP:8, PSPH:8, PSPL:8, PSP16:16, XSPH:8, XSPL:8, XSP16:16
        CFI VirtualResource ?RET:24
        CFI Resource ?BRET_EXT:8
        CFI VirtualResource ?RET_HIGH:8, ?RET_LOW:8
        CFI ResourceParts PSP16 PSPH, PSPL
        CFI ResourceParts XSP16 XSPH, XSPL
        CFI ResourceParts ?RET ?BRET_EXT, ?RET_HIGH, ?RET_LOW
        CFI EndNames cfiNames0
        
        CFI Common cfiCommon0 Using cfiNames0
        CFI CodeAlign 1
        CFI DataAlign -1
        CFI ReturnAddress ?RET CODE
        CFI CFA_DOVERLAY Used
        CFI CFA_IOVERLAY Used
        CFI CFA_SP SP+-3
        CFI CFA_PSP16 PSP16+0
        CFI CFA_XSP16 XSP16+0
        CFI `PSW.CY` SameValue
        CFI `B.BR0` SameValue
        CFI `B.BR1` SameValue
        CFI `B.BR2` SameValue
        CFI `B.BR3` SameValue
        CFI `B.BR4` SameValue
        CFI `B.BR5` SameValue
        CFI `B.BR6` SameValue
        CFI `B.BR7` SameValue
        CFI `VB.BR8` SameValue
        CFI `VB.BR9` SameValue
        CFI `VB.BR10` SameValue
        CFI `VB.BR11` SameValue
        CFI `VB.BR12` SameValue
        CFI `VB.BR13` SameValue
        CFI `VB.BR14` SameValue
        CFI `VB.BR15` SameValue
        CFI VB SameValue
        CFI B Undefined
        CFI A Undefined
        CFI PSW SameValue
        CFI DPL0 SameValue
        CFI DPH0 SameValue
        CFI R0 Undefined
        CFI R1 Undefined
        CFI R2 Undefined
        CFI R3 Undefined
        CFI R4 Undefined
        CFI R5 Undefined
        CFI R6 SameValue
        CFI R7 SameValue
        CFI V0 SameValue
        CFI V1 SameValue
        CFI V2 SameValue
        CFI V3 SameValue
        CFI V4 SameValue
        CFI V5 SameValue
        CFI V6 SameValue
        CFI V7 SameValue
        CFI PSPH Undefined
        CFI PSPL Undefined
        CFI XSPH Undefined
        CFI XSPL Undefined
        CFI ?RET Concat
        CFI ?BRET_EXT Frame(CFA_SP, 3)
        CFI ?RET_HIGH Frame(CFA_SP, 2)
        CFI ?RET_LOW Frame(CFA_SP, 1)
        CFI EndCommon cfiCommon0
        
        
        CFI Common cfiCommon1 Using cfiNames0
        CFI CodeAlign 1
        CFI DataAlign -1
        CFI ReturnAddress ?RET CODE
        CFI CFA_DOVERLAY Used
        CFI CFA_IOVERLAY Used
        CFI CFA_SP SP+-2
        CFI CFA_PSP16 PSP16+0
        CFI CFA_XSP16 XSP16+0
        CFI `PSW.CY` SameValue
        CFI `B.BR0` SameValue
        CFI `B.BR1` SameValue
        CFI `B.BR2` SameValue
        CFI `B.BR3` SameValue
        CFI `B.BR4` SameValue
        CFI `B.BR5` SameValue
        CFI `B.BR6` SameValue
        CFI `B.BR7` SameValue
        CFI `VB.BR8` SameValue
        CFI `VB.BR9` SameValue
        CFI `VB.BR10` SameValue
        CFI `VB.BR11` SameValue
        CFI `VB.BR12` SameValue
        CFI `VB.BR13` SameValue
        CFI `VB.BR14` SameValue
        CFI `VB.BR15` SameValue
        CFI VB SameValue
        CFI B SameValue
        CFI A SameValue
        CFI PSW SameValue
        CFI DPL0 SameValue
        CFI DPH0 SameValue
        CFI R0 SameValue
        CFI R1 SameValue
        CFI R2 SameValue
        CFI R3 SameValue
        CFI R4 SameValue
        CFI R5 SameValue
        CFI R6 SameValue
        CFI R7 SameValue
        CFI V0 SameValue
        CFI V1 SameValue
        CFI V2 SameValue
        CFI V3 SameValue
        CFI V4 SameValue
        CFI V5 SameValue
        CFI V6 SameValue
        CFI V7 SameValue
        CFI PSPH Undefined
        CFI PSPL Undefined
        CFI XSPH Undefined
        CFI XSPL Undefined
        CFI ?RET Concat
        CFI ?BRET_EXT SameValue
        CFI ?RET_HIGH Frame(CFA_SP, 2)
        CFI ?RET_LOW Frame(CFA_SP, 1)
        CFI EndCommon cfiCommon1
        
sqrt                SYMBOL "sqrt"
acos                SYMBOL "acos"
HalLcdWriteStringValue SYMBOL "HalLcdWriteStringValue"
??HalLcdWriteStringValue?relay SYMBOL "?relay", HalLcdWriteStringValue
??acos?relay        SYMBOL "?relay", acos
??sqrt?relay        SYMBOL "?relay", sqrt
Delay               SYMBOL "Delay"
??Delay?relay       SYMBOL "?relay", Delay
Delay_1u            SYMBOL "Delay_1u"
??Delay_1u?relay    SYMBOL "?relay", Delay_1u
I2C_Check_ack       SYMBOL "I2C_Check_ack"
??I2C_Check_ack?relay SYMBOL "?relay", I2C_Check_ack
I2C_Start_1         SYMBOL "I2C_Start_1"
??I2C_Start_1?relay SYMBOL "?relay", I2C_Start_1
I2C_Stop_1          SYMBOL "I2C_Stop_1"
??I2C_Stop_1?relay  SYMBOL "?relay", I2C_Stop_1
Init_ADXL345        SYMBOL "Init_ADXL345"
??Init_ADXL345?relay SYMBOL "?relay", Init_ADXL345
Multiple_Read_ADXL345 SYMBOL "Multiple_Read_ADXL345"
??Multiple_Read_ADXL345?relay SYMBOL "?relay", Multiple_Read_ADXL345
ReadI2CByte_1       SYMBOL "ReadI2CByte_1"
??ReadI2CByte_1?relay SYMBOL "?relay", ReadI2CByte_1
Sendack             SYMBOL "Sendack"
??Sendack?relay     SYMBOL "?relay", Sendack
Single_Read_ADXL345 SYMBOL "Single_Read_ADXL345"
??Single_Read_ADXL345?relay SYMBOL "?relay", Single_Read_ADXL345
Single_Write_ADXL345 SYMBOL "Single_Write_ADXL345"
??Single_Write_ADXL345?relay SYMBOL "?relay", Single_Write_ADXL345
WriteI2CByte_1      SYMBOL "WriteI2CByte_1"
??WriteI2CByte_1?relay SYMBOL "?relay", WriteI2CByte_1
conversion          SYMBOL "conversion"
??conversion?relay  SYMBOL "?relay", conversion
displayXYZ          SYMBOL "displayXYZ"
??displayXYZ?relay  SYMBOL "?relay", displayXYZ

        EXTERN sqrt
        FUNCTION sqrt,010202H
        ARGFRAME ISTACK, 0, STACK
        ARGFRAME PSTACK, 0, STACK
        ARGFRAME XSTACK, 22, STACK
        ARGFRAME IOVERLAY, 0, STATIC
        ARGFRAME DOVERLAY, 0, STATIC
        EXTERN acos
        FUNCTION acos,010202H
        ARGFRAME ISTACK, 0, STACK
        ARGFRAME PSTACK, 0, STACK
        ARGFRAME XSTACK, 22, STACK
        ARGFRAME IOVERLAY, 0, STATIC
        ARGFRAME DOVERLAY, 0, STATIC
        EXTERN HalLcdWriteStringValue
        FUNCTION HalLcdWriteStringValue,0202H
        ARGFRAME ISTACK, 0, STACK
        ARGFRAME PSTACK, 0, STACK
        ARGFRAME XSTACK, 17, STACK
        ARGFRAME IOVERLAY, 0, STATIC
        ARGFRAME DOVERLAY, 0, STATIC
        EXTERN ??HalLcdWriteStringValue?relay
        FUNCTION ??HalLcdWriteStringValue?relay,00H
        EXTERN ??acos?relay
        FUNCTION ??acos?relay,00H
        EXTERN ??sqrt?relay
        FUNCTION ??sqrt?relay,00H

// C:\Texas Instruments\ZStack-1.4.3-1.2.1\Projects\zstack\Samples\cc2430-zstack-adxl345\Drivers\adxl345.c
//    1 #include <ioCC2430.h>

        ASEGN SFR_AN:DATA:NOROOT,090H
// union <unnamed> volatile __sfr _A_P1
_A_P1:
        DS 1

        ASEGN SFR_AN:DATA:NOROOT,0feH
// unsigned char volatile __sfr P1DIR
P1DIR:
        DS 1
//    2 #include <string.h>
//    3 #include <math.h>
//    4 #include <stdio.h>
//    5 #include <math.h>
//    6 #include "adxl345.h"
//    7 //#include "LCD3310.h"
//    8 #define SCL     P1_2
//    9 #define SDA     P1_3
//   10 
//   11 #define SDADirOut P1DIR|=0x08;      //xxxx1M01
//   12 #define SDADirIn  P1DIR&=~0x08;
//   13 
//   14 #define TRUE 1
//   15 #define FALSE 0
//   16 #define	SlaveAddress 0xA6 //定义器件在IIC总线中的从地址,根据ALT  ADDRESS地址引脚不同修改
//   17 

        RSEG XDATA_Z:XDATA:NOROOT(0)
//   18 INT8U BUFFER[12];
BUFFER:
        DS 12
        REQUIRE __INIT_XDATA_Z

        RSEG XDATA_Z:XDATA:NOROOT(0)
//   19 INT8U POS_TEMP[6];
POS_TEMP:
        DS 6
        REQUIRE __INIT_XDATA_Z

        RSEG XDATA_Z:XDATA:NOROOT(0)
//   20 int  dis_data;
dis_data:
        DS 2
        REQUIRE __INIT_XDATA_Z
//   21 

        RSEG XDATA_Z:XDATA:NOROOT(0)
//   22 char wan,qian,bai,shi,ge;
wan:
        DS 1
        REQUIRE __INIT_XDATA_Z

        RSEG XDATA_Z:XDATA:NOROOT(0)
qian:
        DS 1
        REQUIRE __INIT_XDATA_Z

        RSEG XDATA_Z:XDATA:NOROOT(0)
bai:
        DS 1
        REQUIRE __INIT_XDATA_Z

        RSEG XDATA_Z:XDATA:NOROOT(0)
shi:
        DS 1
        REQUIRE __INIT_XDATA_Z

        RSEG XDATA_Z:XDATA:NOROOT(0)
`ge`:
        DS 1
        REQUIRE __INIT_XDATA_Z
//   23 
//   24 void initUARTtest(void);
//   25 void UartTX_Send_String(char *Data,int len);
//   26 void conversion(void);
//   27 
//   28 void Sendack(unsigned char h);
//   29 unsigned char I2C_Check_ack();
//   30 
//   31 void I2C_Start_1(void);
//   32 void I2C_Stop_1(void);
//   33 
//   34 void WriteI2CByte_1(INT8U b);
//   35 unsigned char ReadI2CByte_1(void);
//   36 
//   37 unsigned char Single_Read_ADXL345(INT8U REG_Address);
//   38 void Single_Write_ADXL345(INT8U REG_Address,INT8U REG_data);
//   39 
//   40 void Init_ADXL345();
//   41 
//   42 void Delay_1u(unsigned int microSecs);
//   43 void Delay(INT16U n);
//   44 
//   45 INT8U I2C_Check_ack(void);
//   46 
//   47 
//   48 void Multiple_Read_ADXL345(void);
//   49 

        RSEG BANKED_CODE:CODE:NOROOT(0)
//   50 void Delay(INT16U n)      //(5/32)*n   us
Delay:
        CFI Block cfiBlock0 Using cfiCommon0
        CFI Function Delay
//   51 {
        ; Saved register size: 0
        ; Auto size: 0
//   52     INT16U d;
//   53     for(d=0;d<n;d++);
        MOV     R0,#0x0
        MOV     R1,#0x0
        SJMP    ??CrossCallReturnLabel_3
??Delay_0:
        LCALL   ?Subroutine1 & 0xFFFF
??CrossCallReturnLabel_3:
        CLR     C
        MOV     A,R0
        SUBB    A,R2
        MOV     A,R1
        SUBB    A,R3
        JC      ??Delay_0
//   54     for(d=0;d<n;d++);
        MOV     R0,#0x0
        MOV     R1,#0x0
        SJMP    ??CrossCallReturnLabel_4
??Delay_1:
        LCALL   ?Subroutine1 & 0xFFFF
??CrossCallReturnLabel_4:
        CLR     C
        MOV     A,R0
        SUBB    A,R2
        MOV     A,R1
        SUBB    A,R3
        JC      ??Delay_1
//   55     for(d=0;d<n;d++);
        MOV     R0,#0x0
        MOV     R1,#0x0
        SJMP    ??CrossCallReturnLabel_5
??Delay_2:
        LCALL   ?Subroutine1 & 0xFFFF
??CrossCallReturnLabel_5:
        CLR     C
        MOV     A,R0
        SUBB    A,R2
        MOV     A,R1
        SUBB    A,R3
        JC      ??Delay_2
//   56     for(d=0;d<n;d++);
        MOV     R0,#0x0
        MOV     R1,#0x0
        SJMP    ??CrossCallReturnLabel_6
??Delay_3:
        LCALL   ?Subroutine1 & 0xFFFF
??CrossCallReturnLabel_6:
        CLR     C
        MOV     A,R0
        SUBB    A,R2
        MOV     A,R1
        SUBB    A,R3
        JC      ??Delay_3
//   57     for(d=0;d<n;d++);
        MOV     R0,#0x0
        MOV     R1,#0x0
        SJMP    ??CrossCallReturnLabel_7
??Delay_4:
        LCALL   ?Subroutine1 & 0xFFFF
??CrossCallReturnLabel_7:
        CLR     C
        MOV     A,R0
        SUBB    A,R2
        MOV     A,R1
        SUBB    A,R3
        JC      ??Delay_4
//   58 }
        LJMP    ?BRET
        CFI EndBlock cfiBlock0

        RSEG BANKED_CODE:CODE:NOROOT(0)
?Subroutine1:
        CFI Block cfiCond1 Using cfiCommon0
        CFI NoFunction
        CFI Conditional ??CrossCallReturnLabel_3
        CFI Block cfiCond2 Using cfiCommon0
        CFI (cfiCond2) NoFunction
        CFI (cfiCond2) Conditional ??CrossCallReturnLabel_4
        CFI Block cfiCond3 Using cfiCommon0
        CFI (cfiCond3) NoFunction
        CFI (cfiCond3) Conditional ??CrossCallReturnLabel_5
        CFI Block cfiCond4 Using cfiCommon0
        CFI (cfiCond4) NoFunction
        CFI (cfiCond4) Conditional ??CrossCallReturnLabel_6
        CFI Block cfiCond5 Using cfiCommon0
        CFI (cfiCond5) NoFunction
        CFI (cfiCond5) Conditional ??CrossCallReturnLabel_7
        CFI Block cfiPicker6 Using cfiCommon1
        CFI (cfiPicker6) NoFunction
        CFI (cfiPicker6) Picker
        MOV     A,R0
        ADD     A,#0x1
        INC     R0
        MOV     A,R1
        ADDC    A,#0x0
        MOV     R1,A
        RET
        CFI EndBlock cfiCond1
        CFI EndBlock cfiCond2
        CFI EndBlock cfiCond3
        CFI EndBlock cfiCond4
        CFI EndBlock cfiCond5
        CFI EndBlock cfiPicker6
//   59 

        RSEG BANKED_CODE:CODE:NOROOT(0)
//   60 void Delay_1u(unsigned int microSecs) {
Delay_1u:
        CFI Block cfiBlock7 Using cfiCommon0
        CFI Function Delay_1u
        ; Saved register size: 0
        ; Auto size: 0
        SJMP    ??Delay_1u_0
//   61     while(microSecs--)
//   62     {
//   63         /* 32 NOPs == 1 usecs */
//   64         asm("nop"); asm("nop"); asm("nop"); asm("nop"); asm("nop");
??Delay_1u_1:
        nop
        nop
        nop
        nop
        nop
//   65         asm("nop"); asm("nop"); asm("nop"); asm("nop"); asm("nop");
        nop
        nop
        nop
        nop
        nop
//   66         asm("nop"); asm("nop"); asm("nop"); asm("nop"); asm("nop");
        nop
        nop
        nop
        nop
        nop
//   67         asm("nop"); asm("nop"); asm("nop"); asm("nop"); asm("nop");
        nop
        nop
        nop
        nop
        nop
//   68         asm("nop"); asm("nop"); asm("nop"); asm("nop"); asm("nop");
        nop
        nop
        nop
        nop
        nop
//   69         asm("nop"); asm("nop"); asm("nop"); asm("nop"); asm("nop");
        nop
        nop
        nop
        nop
        nop
//   70         asm("nop"); asm("nop");
        nop
        nop
//   71     }
??Delay_1u_0:
        MOV     A,R2
        MOV     R0,A
        MOV     A,R3
        MOV     R1,A
        MOV     A,#-0x1
        ADD     A,R0
        DEC     R2
        MOV     A,#-0x1
        ADDC    A,R1
        MOV     R3,A
        MOV     A,R0
        JNZ     ??Delay_1u_2
        MOV     A,R1
??Delay_1u_2:
        JNZ     ??Delay_1u_1
//   72 }
        LJMP    ?BRET
        CFI EndBlock cfiBlock7
//   73 

        RSEG BANKED_CODE:CODE:NOROOT(0)
//   74 void conversion(void)
conversion:
        CFI Block cfiBlock8 Using cfiCommon0
        CFI Function conversion
//   75 {
        FUNCALL conversion, sqrt
        LOCFRAME ISTACK, 0, STACK
        LOCFRAME PSTACK, 0, STACK
        LOCFRAME XSTACK, 22, STACK
        LOCFRAME IOVERLAY, 0, STATIC
        LOCFRAME DOVERLAY, 0, STATIC
        ARGFRAME ISTACK, 0, STACK
        ARGFRAME PSTACK, 0, STACK
        ARGFRAME XSTACK, 22, STACK
        ARGFRAME IOVERLAY, 0, STATIC
        ARGFRAME DOVERLAY, 0, STATIC
        FUNCALL conversion, acos
        LOCFRAME ISTACK, 0, STACK
        LOCFRAME PSTACK, 0, STACK
        LOCFRAME XSTACK, 22, STACK
        LOCFRAME IOVERLAY, 0, STATIC
        LOCFRAME DOVERLAY, 0, STATIC
        ARGFRAME ISTACK, 0, STACK
        ARGFRAME PSTACK, 0, STACK
        ARGFRAME XSTACK, 22, STACK
        ARGFRAME IOVERLAY, 0, STATIC
        ARGFRAME DOVERLAY, 0, STATIC
        FUNCALL conversion, sqrt
        LOCFRAME ISTACK, 0, STACK
        LOCFRAME PSTACK, 0, STACK
        LOCFRAME XSTACK, 22, STACK
        LOCFRAME IOVERLAY, 0, STATIC
        LOCFRAME DOVERLAY, 0, STATIC
        ARGFRAME ISTACK, 0, STACK
        ARGFRAME PSTACK, 0, STACK
        ARGFRAME XSTACK, 22, STACK
        ARGFRAME IOVERLAY, 0, STATIC
        ARGFRAME DOVERLAY, 0, STATIC
        MOV     A,#-0x10
        LCALL   ?BANKED_ENTER_XDATA
        CFI DPH0 load(1, XDATA, add(CFA_XSP16, literal(-1)))
        CFI DPL0 load(1, XDATA, add(CFA_XSP16, literal(-2)))
        CFI ?BRET_EXT load(1, XDATA, add(CFA_XSP16, literal(-3)))
        CFI ?RET_HIGH load(1, XDATA, add(CFA_XSP16, literal(-4)))
        CFI ?RET_LOW load(1, XDATA, add(CFA_XSP16, literal(-5)))
        CFI R7 load(1, XDATA, add(CFA_XSP16, literal(-6)))
        CFI V7 load(1, XDATA, add(CFA_XSP16, literal(-7)))
        CFI V6 load(1, XDATA, add(CFA_XSP16, literal(-8)))
        CFI V5 load(1, XDATA, add(CFA_XSP16, literal(-9)))
        CFI V4 load(1, XDATA, add(CFA_XSP16, literal(-10)))
        CFI V3 load(1, XDATA, add(CFA_XSP16, literal(-11)))
        CFI V2 load(1, XDATA, add(CFA_XSP16, literal(-12)))
        CFI V1 load(1, XDATA, add(CFA_XSP16, literal(-13)))
        CFI V0 load(1, XDATA, add(CFA_XSP16, literal(-14)))
        CFI VB load(1, XDATA, add(CFA_XSP16, literal(-15)))
        CFI R6 load(1, XDATA, add(CFA_XSP16, literal(-16)))
        CFI CFA_SP SP+0
        CFI CFA_XSP16 add(XSP16, 16)
        ; Saved register size: 16
        ; Auto size: 6
        MOV     A,#-0x6
        LCALL   ?ALLOC_XSTACK8
        CFI CFA_XSP16 add(XSP16, 22)
//   76     BUFFER[10] = 0xff;
        MOV     A,#-0x1
        MOV     DPTR,#(BUFFER + 10)
        MOVX    @DPTR,A
//   77     int data[3];
//   78     double temp;
//   79     data[0] = (POS_TEMP[1] << 8) + POS_TEMP[0];
        MOV     DPTR,#(POS_TEMP + 1)
        MOVX    A,@DPTR
        MOV     R1,A
        MOV     DPTR,#POS_TEMP
        MOVX    A,@DPTR
        ADD     A,#0x0
        MOV     DPL,?XSP + 0
        MOV     DPH,?XSP + 1
        MOVX    @DPTR,A
        INC     DPTR
        MOV     A,R1
        MOVX    @DPTR,A
//   80     if (data[0] < 0){
        LCALL   ??Subroutine2_0 & 0xFFFF
??CrossCallReturnLabel_11:
        JNC     ??conversion_0
//   81         data[0] = -data[0];
        MOV     DPL,?XSP + 0
        MOV     DPH,?XSP + 1
        LCALL   ?Subroutine11 & 0xFFFF
//   82         BUFFER[10] &= ~0x01;
??CrossCallReturnLabel_29:
        MOV     A,#-0x2
        MOV     DPTR,#(BUFFER + 10)
        MOVX    @DPTR,A
//   83     }
//   84     data[1] = (POS_TEMP[3] << 8) + POS_TEMP[2];
??conversion_0:
        MOV     DPTR,#(POS_TEMP + 3)
        MOVX    A,@DPTR
        MOV     R1,A
        MOV     DPTR,#(POS_TEMP + 2)
        MOVX    A,@DPTR
        MOV     R0,A
        MOV     A,#0x2
        LCALL   ?XSTACK_DISP0_8
        MOV     A,R0
        MOVX    @DPTR,A
        INC     DPTR
        MOV     A,R1
        MOVX    @DPTR,A
//   85     if (data[1] < 0){
        CLR     C
        LCALL   ??Subroutine2_0 & 0xFFFF
??CrossCallReturnLabel_12:
        JNC     ??conversion_1
//   86         data[1] = -data[1];
        MOV     A,#0x2
        LCALL   ?XSTACK_DISP0_8
        LCALL   ?Subroutine3 & 0xFFFF
//   87         BUFFER[10] &= ~0x02;
??CrossCallReturnLabel_13:
        CLR     0xE0 /* A   */.1
        MOVX    @DPTR,A
//   88     }
//   89     data[2] = (POS_TEMP[5] << 8 + POS_TEMP[4]);
??conversion_1:
        MOV     DPTR,#(POS_TEMP + 5)
        MOVX    A,@DPTR
        MOV     ?V0 + 0,A
        MOV     ?V0 + 1,#0x0
        MOV     DPTR,#(POS_TEMP + 4)
        MOVX    A,@DPTR
        ADD     A,#0x8
        MOV     R0,#?V0 + 0
        LCALL   ?S_SHL
        MOV     R0,?V0 + 0
        MOV     R1,?V0 + 1
        MOV     A,#0x4
        LCALL   ?XSTACK_DISP0_8
        MOV     A,R0
        MOVX    @DPTR,A
        INC     DPTR
        MOV     A,R1
        MOVX    @DPTR,A
//   90     if (data[2] < 0){
        CLR     C
        MOV     A,R0
        SUBB    A,#0x0
        MOV     A,R1
        XRL     A,PSW
        RLC     A
        JNC     ??conversion_2
//   91         data[2] = -data[2];
        MOV     A,#0x4
        LCALL   ?XSTACK_DISP0_8
        LCALL   ?Subroutine3 & 0xFFFF
//   92         BUFFER[10] &= ~0x04;
??CrossCallReturnLabel_14:
        CLR     0xE0 /* A   */.2
        MOVX    @DPTR,A
//   93     }
//   94     //计算角度
//   95  //   temp = sqrt( data[0] * data[0] + data[1] * data[1] + data[2] * data[2]);
//   96     temp = sqrt(2);
??conversion_2:
        ; Setup parameters for call to function sqrt
        MOV     DPTR,#__Constant_40000000
        MOV     R0,#?V0 + 0
        LCALL   ?L_MOV_X
        LCALL   ?Subroutine4 & 0xFFFF
//   97  //   temp = acos((float)(data[2]) / temp);
//   98    temp = acos(1.0 / temp );
??CrossCallReturnLabel_15:
        ; Setup parameters for call to function acos
        MOV     ?V0 + 4,#0x0
        MOV     ?V0 + 5,#0x0
        MOV     ?V0 + 6,#-0x80
        MOV     ?V0 + 7,#0x3f
        MOV     R0,#?V0 + 4
        MOV     R1,#?V0 + 0
        LCALL   ?FLT_DIV
        MOV     R2,?V0 + 4
        MOV     R3,?V0 + 5
        MOV     R4,?V0 + 6
        MOV     R5,?V0 + 7
        LCALL   ??acos?relay
        MOV     ?V0 + 0,R2
        MOV     ?V0 + 1,R3
        MOV     ?V0 + 2,R4
        MOV     ?V0 + 3,R5
//   99     temp = temp / 3.14 * 180;
        MOV     DPTR,#__Constant_4048f5c3
        MOV     R0,#?V0 + 4
        LCALL   ?L_MOV_X
        MOV     R0,#?V0 + 0
        MOV     R1,#?V0 + 4
        LCALL   ?FLT_DIV
        MOV     DPTR,#__Constant_43340000
        MOV     R0,#?V0 + 4
        LCALL   ?L_MOV_X
        MOV     R0,#?V0 + 0
        MOV     R1,#?V0 + 4
        LCALL   ?FLT_MUL
//  100     BUFFER[9] = (INT8U)(temp) / 10 + '0';
        MOV     R0,#?V0 + 0
        LCALL   ?FLT_TO_L
        MOV     R2,?V0 + 0
        MOV     B,#0xa
        MOV     A,R2
        DIV     AB
        ADD     A,#0x30
        MOV     DPTR,#(BUFFER + 9)
        MOVX    @DPTR,A
//  101     BUFFER[8] = (INT8U)(temp) % 10 + '0';
        MOV     A,R2
        MOV     B,#0xa
        DIV     AB
        MOV     A,B
        ADD     A,#0x30
        MOV     DPTR,#(BUFFER + 8)
        MOVX    @DPTR,A
//  102     if (sqrt( data[0] * data[0] + data[1] * data[1] + data[2] * data[2]) > 384){
        MOV     A,#0x4
        LCALL   ?XSTACK_DISP0_8
        MOVX    A,@DPTR
        MOV     R0,A
        INC     DPTR
        MOVX    A,@DPTR
        MOV     R1,A
        MOV     A,#0x2
        LCALL   ?XSTACK_DISP0_8
        MOVX    A,@DPTR
        MOV     R2,A
        INC     DPTR
        MOVX    A,@DPTR
        MOV     R3,A
        ; Setup parameters for call to function sqrt
        MOV     DPL,?XSP + 0
        MOV     DPH,?XSP + 1
        MOVX    A,@DPTR
        MOV     ?V0 + 0,A
        MOV     R4,A
        INC     DPTR
        MOVX    A,@DPTR
        MOV     R5,A
        MOV     A,R4
        MOV     B,A
        MUL     AB
        XCH     A,R4
        MOV     R6,B
        MOV     B,R5
        MUL     AB
        ADD     A,R6
        MOV     R6,A
        MOV     B,?V0 + 0
        MOV     A,R5
        MUL     AB
        ADD     A,R6
        MOV     R5,A
        MOV     ?V0 + 0,R2
        MOV     A,R2
        MOV     B,A
        MUL     AB
        XCH     A,R2
        MOV     R6,B
        MOV     B,R3
        MUL     AB
        ADD     A,R6
        MOV     R6,A
        MOV     B,?V0 + 0
        MOV     A,R3
        MUL     AB
        ADD     A,R6
        MOV     R3,A
        MOV     A,R2
        ADD     A,R4
        MOV     R2,A
        MOV     A,R3
        ADDC    A,R5
        MOV     R3,A
        MOV     ?V0 + 0,R0
        MOV     A,R0
        MOV     B,A
        MUL     AB
        XCH     A,R0
        MOV     R4,B
        MOV     B,R1
        MUL     AB
        ADD     A,R4
        MOV     R4,A
        MOV     B,?V0 + 0
        MOV     A,R1
        MUL     AB
        ADD     A,R4
        MOV     R1,A
        MOV     A,R0
        ADD     A,R2
        MOV     ?V0 + 0,A
        MOV     A,R1
        ADDC    A,R3
        MOV     ?V0 + 1,A
        RLC     A
        SUBB    A,0xE0 /* A   */
        MOV     ?V0 + 2,A
        MOV     ?V0 + 3,A
        MOV     R0,#?V0 + 0
        LCALL   ?L_TO_FLT
        LCALL   ?Subroutine4 & 0xFFFF
??CrossCallReturnLabel_16:
        MOV     DPTR,#__Constant_43c00001
        MOV     R0,#?V0 + 4
        LCALL   ?L_MOV_X
        MOV     R0,#?V0 + 0
        MOV     R1,#?V0 + 4
        LCALL   ?FLT_GE
        JNC     ??conversion_3
//  103         BUFFER[11] = 0xFF; //in danger
        MOV     A,#-0x1
        SJMP    ??conversion_4
//  104     } else{
//  105         BUFFER[11] = 0xF0; //safe
??conversion_3:
        MOV     A,#-0x10
??conversion_4:
        MOV     DPTR,#(BUFFER + 11)
        MOVX    @DPTR,A
//  106     }
//  107 }
        MOV     A,#0x6
        CFI EndBlock cfiBlock8
        REQUIRE ?Subroutine16
        ; // Fall through to label ?Subroutine16

        RSEG BANKED_CODE:CODE:NOROOT(0)
?Subroutine16:
        CFI Block cfiBlock9 Using cfiCommon0
        CFI NoFunction
        CFI CFA_SP SP+0
        CFI CFA_XSP16 add(XSP16, 22)
        CFI VB load(1, XDATA, add(CFA_XSP16, literal(-15)))
        CFI DPL0 load(1, XDATA, add(CFA_XSP16, literal(-2)))
        CFI DPH0 load(1, XDATA, add(CFA_XSP16, literal(-1)))
        CFI R6 load(1, XDATA, add(CFA_XSP16, literal(-16)))
        CFI R7 load(1, XDATA, add(CFA_XSP16, literal(-6)))
        CFI V0 load(1, XDATA, add(CFA_XSP16, literal(-14)))
        CFI V1 load(1, XDATA, add(CFA_XSP16, literal(-13)))
        CFI V2 load(1, XDATA, add(CFA_XSP16, literal(-12)))
        CFI V3 load(1, XDATA, add(CFA_XSP16, literal(-11)))
        CFI V4 load(1, XDATA, add(CFA_XSP16, literal(-10)))
        CFI V5 load(1, XDATA, add(CFA_XSP16, literal(-9)))
        CFI V6 load(1, XDATA, add(CFA_XSP16, literal(-8)))
        CFI V7 load(1, XDATA, add(CFA_XSP16, literal(-7)))
        CFI ?BRET_EXT load(1, XDATA, add(CFA_XSP16, literal(-3)))
        CFI ?RET_HIGH load(1, XDATA, add(CFA_XSP16, literal(-4)))
        CFI ?RET_LOW load(1, XDATA, add(CFA_XSP16, literal(-5)))
        CFI Invalid
        LCALL   ?DEALLOC_XSTACK8
        CFI CFA_XSP16 add(XSP16, 16)
        CFI Valid
        MOV     R7,#0x8
        LJMP    ?BANKED_LEAVE_XDATA
        CFI EndBlock cfiBlock9

        RSEG BANKED_CODE:CODE:NOROOT(0)
?Subroutine4:
        CFI Block cfiCond10 Using cfiCommon0
        CFI NoFunction
        CFI Conditional ??CrossCallReturnLabel_15
        CFI R6 load(1, XDATA, add(CFA_XSP16, literal(-16)))
        CFI VB load(1, XDATA, add(CFA_XSP16, literal(-15)))
        CFI V0 load(1, XDATA, add(CFA_XSP16, literal(-14)))
        CFI V1 load(1, XDATA, add(CFA_XSP16, literal(-13)))
        CFI V2 load(1, XDATA, add(CFA_XSP16, literal(-12)))
        CFI V3 load(1, XDATA, add(CFA_XSP16, literal(-11)))
        CFI V4 load(1, XDATA, add(CFA_XSP16, literal(-10)))
        CFI V5 load(1, XDATA, add(CFA_XSP16, literal(-9)))
        CFI V6 load(1, XDATA, add(CFA_XSP16, literal(-8)))
        CFI V7 load(1, XDATA, add(CFA_XSP16, literal(-7)))
        CFI R7 load(1, XDATA, add(CFA_XSP16, literal(-6)))
        CFI ?RET_LOW load(1, XDATA, add(CFA_XSP16, literal(-5)))
        CFI ?RET_HIGH load(1, XDATA, add(CFA_XSP16, literal(-4)))
        CFI ?BRET_EXT load(1, XDATA, add(CFA_XSP16, literal(-3)))
        CFI DPL0 load(1, XDATA, add(CFA_XSP16, literal(-2)))
        CFI DPH0 load(1, XDATA, add(CFA_XSP16, literal(-1)))
        CFI CFA_SP SP+0
        CFI CFA_XSP16 add(XSP16, 22)
        CFI Block cfiCond11 Using cfiCommon0
        CFI (cfiCond11) NoFunction
        CFI (cfiCond11) Conditional ??CrossCallReturnLabel_16
        CFI (cfiCond11) R6 load(1, XDATA, add(CFA_XSP16, literal(-16)))
        CFI (cfiCond11) VB load(1, XDATA, add(CFA_XSP16, literal(-15)))
        CFI (cfiCond11) V0 load(1, XDATA, add(CFA_XSP16, literal(-14)))
        CFI (cfiCond11) V1 load(1, XDATA, add(CFA_XSP16, literal(-13)))
        CFI (cfiCond11) V2 load(1, XDATA, add(CFA_XSP16, literal(-12)))
        CFI (cfiCond11) V3 load(1, XDATA, add(CFA_XSP16, literal(-11)))
        CFI (cfiCond11) V4 load(1, XDATA, add(CFA_XSP16, literal(-10)))
        CFI (cfiCond11) V5 load(1, XDATA, add(CFA_XSP16, literal(-9)))
        CFI (cfiCond11) V6 load(1, XDATA, add(CFA_XSP16, literal(-8)))
        CFI (cfiCond11) V7 load(1, XDATA, add(CFA_XSP16, literal(-7)))
        CFI (cfiCond11) R7 load(1, XDATA, add(CFA_XSP16, literal(-6)))
        CFI (cfiCond11) ?RET_LOW load(1, XDATA, add(CFA_XSP16, literal(-5)))
        CFI (cfiCond11) ?RET_HIGH load(1, XDATA, add(CFA_XSP16, literal(-4)))
        CFI (cfiCond11) ?BRET_EXT load(1, XDATA, add(CFA_XSP16, literal(-3)))
        CFI (cfiCond11) DPL0 load(1, XDATA, add(CFA_XSP16, literal(-2)))
        CFI (cfiCond11) DPH0 load(1, XDATA, add(CFA_XSP16, literal(-1)))
        CFI (cfiCond11) CFA_SP SP+0
        CFI (cfiCond11) CFA_XSP16 add(XSP16, 22)
        CFI Block cfiPicker12 Using cfiCommon1
        CFI (cfiPicker12) NoFunction
        CFI (cfiPicker12) Picker
        MOV     R2,?V0 + 0
        MOV     R3,?V0 + 1
        MOV     R4,?V0 + 2
        MOV     R5,?V0 + 3
        LCALL   ??sqrt?relay
        MOV     ?V0 + 0,R2
        MOV     ?V0 + 1,R3
        MOV     ?V0 + 2,R4
        MOV     ?V0 + 3,R5
        RET
        CFI EndBlock cfiCond10
        CFI EndBlock cfiCond11
        CFI EndBlock cfiPicker12

        RSEG BANKED_CODE:CODE:NOROOT(0)
?Subroutine3:
        CFI Block cfiCond13 Using cfiCommon0
        CFI NoFunction
        CFI Conditional ??CrossCallReturnLabel_13
        CFI R6 load(1, XDATA, add(CFA_XSP16, literal(-16)))
        CFI VB load(1, XDATA, add(CFA_XSP16, literal(-15)))
        CFI V0 load(1, XDATA, add(CFA_XSP16, literal(-14)))
        CFI V1 load(1, XDATA, add(CFA_XSP16, literal(-13)))
        CFI V2 load(1, XDATA, add(CFA_XSP16, literal(-12)))
        CFI V3 load(1, XDATA, add(CFA_XSP16, literal(-11)))
        CFI V4 load(1, XDATA, add(CFA_XSP16, literal(-10)))
        CFI V5 load(1, XDATA, add(CFA_XSP16, literal(-9)))
        CFI V6 load(1, XDATA, add(CFA_XSP16, literal(-8)))
        CFI V7 load(1, XDATA, add(CFA_XSP16, literal(-7)))
        CFI R7 load(1, XDATA, add(CFA_XSP16, literal(-6)))
        CFI ?RET_LOW load(1, XDATA, add(CFA_XSP16, literal(-5)))
        CFI ?RET_HIGH load(1, XDATA, add(CFA_XSP16, literal(-4)))
        CFI ?BRET_EXT load(1, XDATA, add(CFA_XSP16, literal(-3)))
        CFI DPL0 load(1, XDATA, add(CFA_XSP16, literal(-2)))
        CFI DPH0 load(1, XDATA, add(CFA_XSP16, literal(-1)))
        CFI CFA_SP SP+0
        CFI CFA_XSP16 add(XSP16, 22)
        CFI Block cfiCond14 Using cfiCommon0
        CFI (cfiCond14) NoFunction
        CFI (cfiCond14) Conditional ??CrossCallReturnLabel_14
        CFI (cfiCond14) R6 load(1, XDATA, add(CFA_XSP16, literal(-16)))
        CFI (cfiCond14) VB load(1, XDATA, add(CFA_XSP16, literal(-15)))
        CFI (cfiCond14) V0 load(1, XDATA, add(CFA_XSP16, literal(-14)))
        CFI (cfiCond14) V1 load(1, XDATA, add(CFA_XSP16, literal(-13)))
        CFI (cfiCond14) V2 load(1, XDATA, add(CFA_XSP16, literal(-12)))
        CFI (cfiCond14) V3 load(1, XDATA, add(CFA_XSP16, literal(-11)))
        CFI (cfiCond14) V4 load(1, XDATA, add(CFA_XSP16, literal(-10)))
        CFI (cfiCond14) V5 load(1, XDATA, add(CFA_XSP16, literal(-9)))
        CFI (cfiCond14) V6 load(1, XDATA, add(CFA_XSP16, literal(-8)))
        CFI (cfiCond14) V7 load(1, XDATA, add(CFA_XSP16, literal(-7)))
        CFI (cfiCond14) R7 load(1, XDATA, add(CFA_XSP16, literal(-6)))
        CFI (cfiCond14) ?RET_LOW load(1, XDATA, add(CFA_XSP16, literal(-5)))
        CFI (cfiCond14) ?RET_HIGH load(1, XDATA, add(CFA_XSP16, literal(-4)))
        CFI (cfiCond14) ?BRET_EXT load(1, XDATA, add(CFA_XSP16, literal(-3)))
        CFI (cfiCond14) DPL0 load(1, XDATA, add(CFA_XSP16, literal(-2)))
        CFI (cfiCond14) DPH0 load(1, XDATA, add(CFA_XSP16, literal(-1)))
        CFI (cfiCond14) CFA_SP SP+0
        CFI (cfiCond14) CFA_XSP16 add(XSP16, 22)
        CFI Block cfiPicker15 Using cfiCommon1
        CFI (cfiPicker15) NoFunction
        CFI (cfiPicker15) Picker
        LCALL   ?Subroutine11 & 0xFFFF
??CrossCallReturnLabel_30:
        MOV     DPTR,#(BUFFER + 10)
        MOVX    A,@DPTR
        RET
        CFI EndBlock cfiCond13
        CFI EndBlock cfiCond14
        CFI EndBlock cfiPicker15

        RSEG BANKED_CODE:CODE:NOROOT(0)
?Subroutine11:
        CFI Block cfiCond16 Using cfiCommon0
        CFI NoFunction
        CFI Conditional ??CrossCallReturnLabel_29
        CFI R6 load(1, XDATA, add(CFA_XSP16, literal(-16)))
        CFI VB load(1, XDATA, add(CFA_XSP16, literal(-15)))
        CFI V0 load(1, XDATA, add(CFA_XSP16, literal(-14)))
        CFI V1 load(1, XDATA, add(CFA_XSP16, literal(-13)))
        CFI V2 load(1, XDATA, add(CFA_XSP16, literal(-12)))
        CFI V3 load(1, XDATA, add(CFA_XSP16, literal(-11)))
        CFI V4 load(1, XDATA, add(CFA_XSP16, literal(-10)))
        CFI V5 load(1, XDATA, add(CFA_XSP16, literal(-9)))
        CFI V6 load(1, XDATA, add(CFA_XSP16, literal(-8)))
        CFI V7 load(1, XDATA, add(CFA_XSP16, literal(-7)))
        CFI R7 load(1, XDATA, add(CFA_XSP16, literal(-6)))
        CFI ?RET_LOW load(1, XDATA, add(CFA_XSP16, literal(-5)))
        CFI ?RET_HIGH load(1, XDATA, add(CFA_XSP16, literal(-4)))
        CFI ?BRET_EXT load(1, XDATA, add(CFA_XSP16, literal(-3)))
        CFI DPL0 load(1, XDATA, add(CFA_XSP16, literal(-2)))
        CFI DPH0 load(1, XDATA, add(CFA_XSP16, literal(-1)))
        CFI CFA_SP SP+0
        CFI CFA_XSP16 add(XSP16, 22)
        CFI Block cfiCond17 Using cfiCommon0
        CFI (cfiCond17) NoFunction
        CFI (cfiCond17) Conditional ??CrossCallReturnLabel_30, ??CrossCallReturnLabel_13
        CFI (cfiCond17) R6 load(1, XDATA, add(CFA_XSP16, literal(-16)))
        CFI (cfiCond17) VB load(1, XDATA, add(CFA_XSP16, literal(-15)))
        CFI (cfiCond17) V0 load(1, XDATA, add(CFA_XSP16, literal(-14)))
        CFI (cfiCond17) V1 load(1, XDATA, add(CFA_XSP16, literal(-13)))
        CFI (cfiCond17) V2 load(1, XDATA, add(CFA_XSP16, literal(-12)))
        CFI (cfiCond17) V3 load(1, XDATA, add(CFA_XSP16, literal(-11)))
        CFI (cfiCond17) V4 load(1, XDATA, add(CFA_XSP16, literal(-10)))
        CFI (cfiCond17) V5 load(1, XDATA, add(CFA_XSP16, literal(-9)))
        CFI (cfiCond17) V6 load(1, XDATA, add(CFA_XSP16, literal(-8)))
        CFI (cfiCond17) V7 load(1, XDATA, add(CFA_XSP16, literal(-7)))
        CFI (cfiCond17) R7 load(1, XDATA, add(CFA_XSP16, literal(-6)))
        CFI (cfiCond17) ?RET_LOW load(1, XDATA, add(CFA_XSP16, literal(-5)))
        CFI (cfiCond17) ?RET_HIGH load(1, XDATA, add(CFA_XSP16, literal(-4)))
        CFI (cfiCond17) ?BRET_EXT load(1, XDATA, add(CFA_XSP16, literal(-3)))
        CFI (cfiCond17) DPL0 load(1, XDATA, add(CFA_XSP16, literal(-2)))
        CFI (cfiCond17) DPH0 load(1, XDATA, add(CFA_XSP16, literal(-1)))
        CFI (cfiCond17) CFA_SP SP+0
        CFI (cfiCond17) CFA_XSP16 add(XSP16, 22)
        CFI Block cfiCond18 Using cfiCommon0
        CFI (cfiCond18) NoFunction
        CFI (cfiCond18) Conditional ??CrossCallReturnLabel_30, ??CrossCallReturnLabel_14
        CFI (cfiCond18) R6 load(1, XDATA, add(CFA_XSP16, literal(-16)))
        CFI (cfiCond18) VB load(1, XDATA, add(CFA_XSP16, literal(-15)))
        CFI (cfiCond18) V0 load(1, XDATA, add(CFA_XSP16, literal(-14)))
        CFI (cfiCond18) V1 load(1, XDATA, add(CFA_XSP16, literal(-13)))
        CFI (cfiCond18) V2 load(1, XDATA, add(CFA_XSP16, literal(-12)))
        CFI (cfiCond18) V3 load(1, XDATA, add(CFA_XSP16, literal(-11)))
        CFI (cfiCond18) V4 load(1, XDATA, add(CFA_XSP16, literal(-10)))
        CFI (cfiCond18) V5 load(1, XDATA, add(CFA_XSP16, literal(-9)))
        CFI (cfiCond18) V6 load(1, XDATA, add(CFA_XSP16, literal(-8)))
        CFI (cfiCond18) V7 load(1, XDATA, add(CFA_XSP16, literal(-7)))
        CFI (cfiCond18) R7 load(1, XDATA, add(CFA_XSP16, literal(-6)))
        CFI (cfiCond18) ?RET_LOW load(1, XDATA, add(CFA_XSP16, literal(-5)))
        CFI (cfiCond18) ?RET_HIGH load(1, XDATA, add(CFA_XSP16, literal(-4)))
        CFI (cfiCond18) ?BRET_EXT load(1, XDATA, add(CFA_XSP16, literal(-3)))
        CFI (cfiCond18) DPL0 load(1, XDATA, add(CFA_XSP16, literal(-2)))
        CFI (cfiCond18) DPH0 load(1, XDATA, add(CFA_XSP16, literal(-1)))
        CFI (cfiCond18) CFA_SP SP+0
        CFI (cfiCond18) CFA_XSP16 add(XSP16, 22)
        CFI Block cfiPicker19 Using cfiCommon1
        CFI (cfiPicker19) NoFunction
        CFI (cfiPicker19) Picker
        MOVX    A,@DPTR
        MOV     R0,A
        CLR     C
        CLR     A
        SUBB    A,R0
        MOV     R0,A
        CLR     A
        SUBB    A,R1
        MOV     R1,A
        MOV     A,R0
        MOVX    @DPTR,A
        INC     DPTR
        MOV     A,R1
        MOVX    @DPTR,A
        RET
        CFI EndBlock cfiCond16
        CFI EndBlock cfiCond17
        CFI EndBlock cfiCond18
        CFI EndBlock cfiPicker19
//  108 

        RSEG BANKED_CODE:CODE:NOROOT(0)
//  109 void I2C_Start_1(void)
I2C_Start_1:
        CFI Block cfiBlock20 Using cfiCommon0
        CFI Function I2C_Start_1
//  110 {
        FUNCALL I2C_Start_1, Delay_1u
        LOCFRAME ISTACK, 2, STACK
        LOCFRAME PSTACK, 0, STACK
        LOCFRAME XSTACK, 0, STACK
        LOCFRAME IOVERLAY, 0, STATIC
        LOCFRAME DOVERLAY, 0, STATIC
        ARGFRAME ISTACK, 2, STACK
        ARGFRAME PSTACK, 0, STACK
        ARGFRAME XSTACK, 0, STACK
        ARGFRAME IOVERLAY, 0, STATIC
        ARGFRAME DOVERLAY, 0, STATIC
        FUNCALL I2C_Start_1, Delay_1u
        LOCFRAME ISTACK, 2, STACK
        LOCFRAME PSTACK, 0, STACK
        LOCFRAME XSTACK, 0, STACK
        LOCFRAME IOVERLAY, 0, STATIC
        LOCFRAME DOVERLAY, 0, STATIC
        ARGFRAME ISTACK, 2, STACK
        ARGFRAME PSTACK, 0, STACK
        ARGFRAME XSTACK, 0, STACK
        ARGFRAME IOVERLAY, 0, STATIC
        ARGFRAME DOVERLAY, 0, STATIC
        FUNCALL I2C_Start_1, Delay_1u
        LOCFRAME ISTACK, 2, STACK
        LOCFRAME PSTACK, 0, STACK
        LOCFRAME XSTACK, 0, STACK
        LOCFRAME IOVERLAY, 0, STATIC
        LOCFRAME DOVERLAY, 0, STATIC
        ARGFRAME ISTACK, 2, STACK
        ARGFRAME PSTACK, 0, STACK
        ARGFRAME XSTACK, 0, STACK
        ARGFRAME IOVERLAY, 0, STATIC
        ARGFRAME DOVERLAY, 0, STATIC
        FUNCALL I2C_Start_1, Delay_1u
        LOCFRAME ISTACK, 2, STACK
        LOCFRAME PSTACK, 0, STACK
        LOCFRAME XSTACK, 0, STACK
        LOCFRAME IOVERLAY, 0, STATIC
        LOCFRAME DOVERLAY, 0, STATIC
        ARGFRAME ISTACK, 2, STACK
        ARGFRAME PSTACK, 0, STACK
        ARGFRAME XSTACK, 0, STACK
        ARGFRAME IOVERLAY, 0, STATIC
        ARGFRAME DOVERLAY, 0, STATIC
        PUSH    DPL
        CFI DPL0 Frame(CFA_SP, 4)
        CFI CFA_SP SP+-4
        PUSH    DPH
        CFI DPH0 Frame(CFA_SP, 5)
        CFI CFA_SP SP+-5
        ; Saved register size: 2
        ; Auto size: 0
//  111     /*启动I2C总线的函数，当SCL为高电平时使SDA产生一个负跳变*/
//  112     SDADirOut;
        LCALL   ?Subroutine9 & 0xFFFF
//  113     Delay_1u(1);
//  114     SDA=1;
??CrossCallReturnLabel_35:
        SETB    0x90.3
//  115     SCL=1;
        SETB    0x90.2
//  116     Delay_1u(5);
        ; Setup parameters for call to function Delay_1u
        MOV     R2,#0x5
        MOV     R3,#0x0
        LCALL   ??Delay_1u?relay
//  117     SDA=0;
        CLR     0x90.3
//  118     Delay_1u(5);
        ; Setup parameters for call to function Delay_1u
        MOV     R2,#0x5
        MOV     R3,#0x0
        LCALL   ??Delay_1u?relay
//  119     SCL=0;
        CLR     0x90.2
//  120     Delay_1u(5);
        ; Setup parameters for call to function Delay_1u
        LJMP    ?Subroutine14 & 0xFFFF
        CFI EndBlock cfiBlock20
        REQUIRE _A_P1
        REQUIRE P1DIR
//  121 }
//  122 

        RSEG BANKED_CODE:CODE:NOROOT(0)
//  123 void I2C_Stop_1(void)
I2C_Stop_1:
        CFI Block cfiBlock21 Using cfiCommon0
        CFI Function I2C_Stop_1
//  124 {
        FUNCALL I2C_Stop_1, Delay_1u
        LOCFRAME ISTACK, 2, STACK
        LOCFRAME PSTACK, 0, STACK
        LOCFRAME XSTACK, 0, STACK
        LOCFRAME IOVERLAY, 0, STATIC
        LOCFRAME DOVERLAY, 0, STATIC
        ARGFRAME ISTACK, 2, STACK
        ARGFRAME PSTACK, 0, STACK
        ARGFRAME XSTACK, 0, STACK
        ARGFRAME IOVERLAY, 0, STATIC
        ARGFRAME DOVERLAY, 0, STATIC
        FUNCALL I2C_Stop_1, Delay_1u
        LOCFRAME ISTACK, 2, STACK
        LOCFRAME PSTACK, 0, STACK
        LOCFRAME XSTACK, 0, STACK
        LOCFRAME IOVERLAY, 0, STATIC
        LOCFRAME DOVERLAY, 0, STATIC
        ARGFRAME ISTACK, 2, STACK
        ARGFRAME PSTACK, 0, STACK
        ARGFRAME XSTACK, 0, STACK
        ARGFRAME IOVERLAY, 0, STATIC
        ARGFRAME DOVERLAY, 0, STATIC
        FUNCALL I2C_Stop_1, Delay_1u
        LOCFRAME ISTACK, 2, STACK
        LOCFRAME PSTACK, 0, STACK
        LOCFRAME XSTACK, 0, STACK
        LOCFRAME IOVERLAY, 0, STATIC
        LOCFRAME DOVERLAY, 0, STATIC
        ARGFRAME ISTACK, 2, STACK
        ARGFRAME PSTACK, 0, STACK
        ARGFRAME XSTACK, 0, STACK
        ARGFRAME IOVERLAY, 0, STATIC
        ARGFRAME DOVERLAY, 0, STATIC
        FUNCALL I2C_Stop_1, Delay_1u
        LOCFRAME ISTACK, 2, STACK
        LOCFRAME PSTACK, 0, STACK
        LOCFRAME XSTACK, 0, STACK
        LOCFRAME IOVERLAY, 0, STATIC
        LOCFRAME DOVERLAY, 0, STATIC
        ARGFRAME ISTACK, 2, STACK
        ARGFRAME PSTACK, 0, STACK
        ARGFRAME XSTACK, 0, STACK
        ARGFRAME IOVERLAY, 0, STATIC
        ARGFRAME DOVERLAY, 0, STATIC
        FUNCALL I2C_Stop_1, Delay_1u
        LOCFRAME ISTACK, 2, STACK
        LOCFRAME PSTACK, 0, STACK
        LOCFRAME XSTACK, 0, STACK
        LOCFRAME IOVERLAY, 0, STATIC
        LOCFRAME DOVERLAY, 0, STATIC
        ARGFRAME ISTACK, 2, STACK
        ARGFRAME PSTACK, 0, STACK
        ARGFRAME XSTACK, 0, STACK
        ARGFRAME IOVERLAY, 0, STATIC
        ARGFRAME DOVERLAY, 0, STATIC
        PUSH    DPL
        CFI DPL0 Frame(CFA_SP, 4)
        CFI CFA_SP SP+-4
        PUSH    DPH
        CFI DPH0 Frame(CFA_SP, 5)
        CFI CFA_SP SP+-5
        ; Saved register size: 2
        ; Auto size: 0
//  125     /*终止I2C总线，当SCL为高电平时使SDA产生一个正跳变*/
//  126     SCL=0;
        CLR     0x90.2
//  127     Delay_1u(1);
        ; Setup parameters for call to function Delay_1u
        MOV     R2,#0x1
        MOV     R3,#0x0
        LCALL   ??Delay_1u?relay
//  128     SDADirOut;
        LCALL   ?Subroutine9 & 0xFFFF
//  129     Delay_1u(1);
//  130     SDA=0;
??CrossCallReturnLabel_36:
        CLR     0x90.3
//  131     Delay_1u(5);
        ; Setup parameters for call to function Delay_1u
        LCALL   ?Subroutine7 & 0xFFFF
//  132     SCL=1;
//  133     Delay_1u(5);
//  134     SDA=1;
??CrossCallReturnLabel_22:
        SETB    0x90.3
//  135     Delay_1u(5);
        ; Setup parameters for call to function Delay_1u
        SJMP    ?Subroutine14
        CFI EndBlock cfiBlock21
        REQUIRE _A_P1
        REQUIRE P1DIR
//  136 }

        RSEG BANKED_CODE:CODE:NOROOT(0)
?Subroutine9:
        CFI Block cfiCond22 Using cfiCommon0
        CFI NoFunction
        CFI Conditional ??CrossCallReturnLabel_35
        CFI DPL0 Frame(CFA_SP, 4)
        CFI DPH0 Frame(CFA_SP, 5)
        CFI CFA_SP SP+-5
        CFI Block cfiCond23 Using cfiCommon0
        CFI (cfiCond23) NoFunction
        CFI (cfiCond23) Conditional ??CrossCallReturnLabel_36
        CFI (cfiCond23) DPL0 Frame(CFA_SP, 4)
        CFI (cfiCond23) DPH0 Frame(CFA_SP, 5)
        CFI (cfiCond23) CFA_SP SP+-5
        CFI Block cfiPicker24 Using cfiCommon1
        CFI (cfiPicker24) NoFunction
        CFI (cfiPicker24) Picker
        ORL     0xfe,#0x8
        ; Setup parameters for call to function Delay_1u
        ; Setup parameters for call to function Delay_1u
        MOV     R2,#0x1
        CFI EndBlock cfiCond22
        CFI EndBlock cfiCond23
        CFI EndBlock cfiPicker24
        REQUIRE ?Subroutine15
        ; // Fall through to label ?Subroutine15

        RSEG BANKED_CODE:CODE:NOROOT(0)
?Subroutine15:
        CFI Block cfiCond25 Using cfiCommon0
        CFI NoFunction
        CFI Conditional ??CrossCallReturnLabel_35
        CFI DPL0 Frame(CFA_SP, 4)
        CFI DPH0 Frame(CFA_SP, 5)
        CFI CFA_SP SP+-5
        CFI Block cfiCond26 Using cfiCommon0
        CFI (cfiCond26) NoFunction
        CFI (cfiCond26) Conditional ??CrossCallReturnLabel_36
        CFI (cfiCond26) DPL0 Frame(CFA_SP, 4)
        CFI (cfiCond26) DPH0 Frame(CFA_SP, 5)
        CFI (cfiCond26) CFA_SP SP+-5
        CFI Block cfiCond27 Using cfiCommon0
        CFI (cfiCond27) NoFunction
        CFI (cfiCond27) Conditional ??CrossCallReturnLabel_33, ??CrossCallReturnLabel_22
        CFI (cfiCond27) DPL0 Frame(CFA_SP, 4)
        CFI (cfiCond27) DPH0 Frame(CFA_SP, 5)
        CFI (cfiCond27) CFA_SP SP+-5
        CFI Block cfiCond28 Using cfiCommon0
        CFI (cfiCond28) NoFunction
        CFI (cfiCond28) Conditional ??CrossCallReturnLabel_33, ??CrossCallReturnLabel_23
        CFI (cfiCond28) R6 load(1, XDATA, add(CFA_XSP16, literal(-9)))
        CFI (cfiCond28) VB load(1, XDATA, add(CFA_XSP16, literal(-8)))
        CFI (cfiCond28) V0 load(1, XDATA, add(CFA_XSP16, literal(-7)))
        CFI (cfiCond28) R7 load(1, XDATA, add(CFA_XSP16, literal(-6)))
        CFI (cfiCond28) ?RET_LOW load(1, XDATA, add(CFA_XSP16, literal(-5)))
        CFI (cfiCond28) ?RET_HIGH load(1, XDATA, add(CFA_XSP16, literal(-4)))
        CFI (cfiCond28) ?BRET_EXT load(1, XDATA, add(CFA_XSP16, literal(-3)))
        CFI (cfiCond28) DPL0 load(1, XDATA, add(CFA_XSP16, literal(-2)))
        CFI (cfiCond28) DPH0 load(1, XDATA, add(CFA_XSP16, literal(-1)))
        CFI (cfiCond28) CFA_SP SP+0
        CFI (cfiCond28) CFA_XSP16 add(XSP16, 9)
        CFI Block cfiCond29 Using cfiCommon0
        CFI (cfiCond29) NoFunction
        CFI (cfiCond29) Conditional ??CrossCallReturnLabel_33, ??CrossCallReturnLabel_24
        CFI (cfiCond29) R6 load(1, XDATA, add(CFA_XSP16, literal(-9)))
        CFI (cfiCond29) VB load(1, XDATA, add(CFA_XSP16, literal(-8)))
        CFI (cfiCond29) V0 load(1, XDATA, add(CFA_XSP16, literal(-7)))
        CFI (cfiCond29) R7 load(1, XDATA, add(CFA_XSP16, literal(-6)))
        CFI (cfiCond29) ?RET_LOW load(1, XDATA, add(CFA_XSP16, literal(-5)))
        CFI (cfiCond29) ?RET_HIGH load(1, XDATA, add(CFA_XSP16, literal(-4)))
        CFI (cfiCond29) ?BRET_EXT load(1, XDATA, add(CFA_XSP16, literal(-3)))
        CFI (cfiCond29) DPL0 load(1, XDATA, add(CFA_XSP16, literal(-2)))
        CFI (cfiCond29) DPH0 load(1, XDATA, add(CFA_XSP16, literal(-1)))
        CFI (cfiCond29) CFA_SP SP+0
        CFI (cfiCond29) CFA_XSP16 add(XSP16, 9)
        CFI Block cfiCond30 Using cfiCommon0
        CFI (cfiCond30) NoFunction
        CFI (cfiCond30) Conditional ??CrossCallReturnLabel_34, ??CrossCallReturnLabel_20
        CFI (cfiCond30) DPL0 Frame(CFA_SP, 4)
        CFI (cfiCond30) DPH0 Frame(CFA_SP, 5)
        CFI (cfiCond30) CFA_SP SP+-5
        CFI Block cfiCond31 Using cfiCommon0
        CFI (cfiCond31) NoFunction
        CFI (cfiCond31) Conditional ??CrossCallReturnLabel_34, ??CrossCallReturnLabel_21
        CFI (cfiCond31) R6 load(1, XDATA, add(CFA_XSP16, literal(-9)))
        CFI (cfiCond31) VB load(1, XDATA, add(CFA_XSP16, literal(-8)))
        CFI (cfiCond31) V0 load(1, XDATA, add(CFA_XSP16, literal(-7)))
        CFI (cfiCond31) R7 load(1, XDATA, add(CFA_XSP16, literal(-6)))
        CFI (cfiCond31) ?RET_LOW load(1, XDATA, add(CFA_XSP16, literal(-5)))
        CFI (cfiCond31) ?RET_HIGH load(1, XDATA, add(CFA_XSP16, literal(-4)))
        CFI (cfiCond31) ?BRET_EXT load(1, XDATA, add(CFA_XSP16, literal(-3)))
        CFI (cfiCond31) DPL0 load(1, XDATA, add(CFA_XSP16, literal(-2)))
        CFI (cfiCond31) DPH0 load(1, XDATA, add(CFA_XSP16, literal(-1)))
        CFI (cfiCond31) CFA_SP SP+0
        CFI (cfiCond31) CFA_XSP16 add(XSP16, 9)
        CFI Block cfiPicker32 Using cfiCommon1
        CFI (cfiPicker32) NoFunction
        CFI (cfiPicker32) Picker
        MOV     R3,#0x0
        LCALL   ??Delay_1u?relay
        RET
        CFI EndBlock cfiCond25
        CFI EndBlock cfiCond26
        CFI EndBlock cfiCond27
        CFI EndBlock cfiCond28
        CFI EndBlock cfiCond29
        CFI EndBlock cfiCond30
        CFI EndBlock cfiCond31
        CFI EndBlock cfiPicker32

        RSEG BANKED_CODE:CODE:NOROOT(0)
?Subroutine7:
        CFI Block cfiCond33 Using cfiCommon0
        CFI NoFunction
        CFI Conditional ??CrossCallReturnLabel_22
        CFI DPL0 Frame(CFA_SP, 4)
        CFI DPH0 Frame(CFA_SP, 5)
        CFI CFA_SP SP+-5
        CFI Block cfiCond34 Using cfiCommon0
        CFI (cfiCond34) NoFunction
        CFI (cfiCond34) Conditional ??CrossCallReturnLabel_23
        CFI (cfiCond34) R6 load(1, XDATA, add(CFA_XSP16, literal(-9)))
        CFI (cfiCond34) VB load(1, XDATA, add(CFA_XSP16, literal(-8)))
        CFI (cfiCond34) V0 load(1, XDATA, add(CFA_XSP16, literal(-7)))
        CFI (cfiCond34) R7 load(1, XDATA, add(CFA_XSP16, literal(-6)))
        CFI (cfiCond34) ?RET_LOW load(1, XDATA, add(CFA_XSP16, literal(-5)))
        CFI (cfiCond34) ?RET_HIGH load(1, XDATA, add(CFA_XSP16, literal(-4)))
        CFI (cfiCond34) ?BRET_EXT load(1, XDATA, add(CFA_XSP16, literal(-3)))
        CFI (cfiCond34) DPL0 load(1, XDATA, add(CFA_XSP16, literal(-2)))
        CFI (cfiCond34) DPH0 load(1, XDATA, add(CFA_XSP16, literal(-1)))
        CFI (cfiCond34) CFA_SP SP+0
        CFI (cfiCond34) CFA_XSP16 add(XSP16, 9)
        CFI Block cfiPicker35 Using cfiCommon1
        CFI (cfiPicker35) NoFunction
        CFI (cfiPicker35) Picker
        MOV     R2,#0x5
        CFI Block cfiCond36 Using cfiCommon0
        CFI (cfiCond36) NoFunction
        CFI (cfiCond36) Conditional ??CrossCallReturnLabel_24
        CFI (cfiCond36) R6 load(1, XDATA, add(CFA_XSP16, literal(-9)))
        CFI (cfiCond36) VB load(1, XDATA, add(CFA_XSP16, literal(-8)))
        CFI (cfiCond36) V0 load(1, XDATA, add(CFA_XSP16, literal(-7)))
        CFI (cfiCond36) R7 load(1, XDATA, add(CFA_XSP16, literal(-6)))
        CFI (cfiCond36) ?RET_LOW load(1, XDATA, add(CFA_XSP16, literal(-5)))
        CFI (cfiCond36) ?RET_HIGH load(1, XDATA, add(CFA_XSP16, literal(-4)))
        CFI (cfiCond36) ?BRET_EXT load(1, XDATA, add(CFA_XSP16, literal(-3)))
        CFI (cfiCond36) DPL0 load(1, XDATA, add(CFA_XSP16, literal(-2)))
        CFI (cfiCond36) DPH0 load(1, XDATA, add(CFA_XSP16, literal(-1)))
        CFI (cfiCond36) CFA_SP SP+0
        CFI (cfiCond36) CFA_XSP16 add(XSP16, 9)
??Subroutine7_0:
        LCALL   ?Subroutine12 & 0xFFFF
??CrossCallReturnLabel_33:
        RET
        CFI EndBlock cfiCond33
        CFI EndBlock cfiCond34
        CFI EndBlock cfiPicker35
        CFI EndBlock cfiCond36

        RSEG BANKED_CODE:CODE:NOROOT(0)
?Subroutine12:
        CFI Block cfiCond37 Using cfiCommon0
        CFI NoFunction
        CFI Conditional ??CrossCallReturnLabel_33, ??CrossCallReturnLabel_22
        CFI DPL0 Frame(CFA_SP, 4)
        CFI DPH0 Frame(CFA_SP, 5)
        CFI CFA_SP SP+-5
        CFI Block cfiCond38 Using cfiCommon0
        CFI (cfiCond38) NoFunction
        CFI (cfiCond38) Conditional ??CrossCallReturnLabel_33, ??CrossCallReturnLabel_23
        CFI (cfiCond38) R6 load(1, XDATA, add(CFA_XSP16, literal(-9)))
        CFI (cfiCond38) VB load(1, XDATA, add(CFA_XSP16, literal(-8)))
        CFI (cfiCond38) V0 load(1, XDATA, add(CFA_XSP16, literal(-7)))
        CFI (cfiCond38) R7 load(1, XDATA, add(CFA_XSP16, literal(-6)))
        CFI (cfiCond38) ?RET_LOW load(1, XDATA, add(CFA_XSP16, literal(-5)))
        CFI (cfiCond38) ?RET_HIGH load(1, XDATA, add(CFA_XSP16, literal(-4)))
        CFI (cfiCond38) ?BRET_EXT load(1, XDATA, add(CFA_XSP16, literal(-3)))
        CFI (cfiCond38) DPL0 load(1, XDATA, add(CFA_XSP16, literal(-2)))
        CFI (cfiCond38) DPH0 load(1, XDATA, add(CFA_XSP16, literal(-1)))
        CFI (cfiCond38) CFA_SP SP+0
        CFI (cfiCond38) CFA_XSP16 add(XSP16, 9)
        CFI Block cfiCond39 Using cfiCommon0
        CFI (cfiCond39) NoFunction
        CFI (cfiCond39) Conditional ??CrossCallReturnLabel_33, ??CrossCallReturnLabel_24
        CFI (cfiCond39) R6 load(1, XDATA, add(CFA_XSP16, literal(-9)))
        CFI (cfiCond39) VB load(1, XDATA, add(CFA_XSP16, literal(-8)))
        CFI (cfiCond39) V0 load(1, XDATA, add(CFA_XSP16, literal(-7)))
        CFI (cfiCond39) R7 load(1, XDATA, add(CFA_XSP16, literal(-6)))
        CFI (cfiCond39) ?RET_LOW load(1, XDATA, add(CFA_XSP16, literal(-5)))
        CFI (cfiCond39) ?RET_HIGH load(1, XDATA, add(CFA_XSP16, literal(-4)))
        CFI (cfiCond39) ?BRET_EXT load(1, XDATA, add(CFA_XSP16, literal(-3)))
        CFI (cfiCond39) DPL0 load(1, XDATA, add(CFA_XSP16, literal(-2)))
        CFI (cfiCond39) DPH0 load(1, XDATA, add(CFA_XSP16, literal(-1)))
        CFI (cfiCond39) CFA_SP SP+0
        CFI (cfiCond39) CFA_XSP16 add(XSP16, 9)
        CFI Block cfiCond40 Using cfiCommon0
        CFI (cfiCond40) NoFunction
        CFI (cfiCond40) Conditional ??CrossCallReturnLabel_34, ??CrossCallReturnLabel_20
        CFI (cfiCond40) DPL0 Frame(CFA_SP, 4)
        CFI (cfiCond40) DPH0 Frame(CFA_SP, 5)
        CFI (cfiCond40) CFA_SP SP+-5
        CFI Block cfiCond41 Using cfiCommon0
        CFI (cfiCond41) NoFunction
        CFI (cfiCond41) Conditional ??CrossCallReturnLabel_34, ??CrossCallReturnLabel_21
        CFI (cfiCond41) R6 load(1, XDATA, add(CFA_XSP16, literal(-9)))
        CFI (cfiCond41) VB load(1, XDATA, add(CFA_XSP16, literal(-8)))
        CFI (cfiCond41) V0 load(1, XDATA, add(CFA_XSP16, literal(-7)))
        CFI (cfiCond41) R7 load(1, XDATA, add(CFA_XSP16, literal(-6)))
        CFI (cfiCond41) ?RET_LOW load(1, XDATA, add(CFA_XSP16, literal(-5)))
        CFI (cfiCond41) ?RET_HIGH load(1, XDATA, add(CFA_XSP16, literal(-4)))
        CFI (cfiCond41) ?BRET_EXT load(1, XDATA, add(CFA_XSP16, literal(-3)))
        CFI (cfiCond41) DPL0 load(1, XDATA, add(CFA_XSP16, literal(-2)))
        CFI (cfiCond41) DPH0 load(1, XDATA, add(CFA_XSP16, literal(-1)))
        CFI (cfiCond41) CFA_SP SP+0
        CFI (cfiCond41) CFA_XSP16 add(XSP16, 9)
        CFI Block cfiPicker42 Using cfiCommon1
        CFI (cfiPicker42) NoFunction
        CFI (cfiPicker42) Picker
        MOV     R3,#0x0
        LCALL   ??Delay_1u?relay
        SETB    0x90.2
        ; Setup parameters for call to function Delay_1u
        ; Setup parameters for call to function Delay_1u
        ; Setup parameters for call to function Delay_1u
        ; Setup parameters for call to function Delay_1u
        ; Setup parameters for call to function Delay_1u
        MOV     R2,#0x5
        SJMP    ?Subroutine15
        CFI EndBlock cfiCond37
        CFI EndBlock cfiCond38
        CFI EndBlock cfiCond39
        CFI EndBlock cfiCond40
        CFI EndBlock cfiCond41
        CFI EndBlock cfiPicker42
//  137 

        RSEG BANKED_CODE:CODE:NOROOT(0)
//  138 void Sendack(unsigned char h){
Sendack:
        CFI Block cfiBlock43 Using cfiCommon0
        CFI Function Sendack
        FUNCALL Sendack, Delay_1u
        LOCFRAME ISTACK, 0, STACK
        LOCFRAME PSTACK, 0, STACK
        LOCFRAME XSTACK, 9, STACK
        LOCFRAME IOVERLAY, 0, STATIC
        LOCFRAME DOVERLAY, 0, STATIC
        ARGFRAME ISTACK, 0, STACK
        ARGFRAME PSTACK, 0, STACK
        ARGFRAME XSTACK, 9, STACK
        ARGFRAME IOVERLAY, 0, STATIC
        ARGFRAME DOVERLAY, 0, STATIC
        FUNCALL Sendack, Delay
        LOCFRAME ISTACK, 0, STACK
        LOCFRAME PSTACK, 0, STACK
        LOCFRAME XSTACK, 9, STACK
        LOCFRAME IOVERLAY, 0, STATIC
        LOCFRAME DOVERLAY, 0, STATIC
        ARGFRAME ISTACK, 0, STACK
        ARGFRAME PSTACK, 0, STACK
        ARGFRAME XSTACK, 9, STACK
        ARGFRAME IOVERLAY, 0, STATIC
        ARGFRAME DOVERLAY, 0, STATIC
        FUNCALL Sendack, Delay_1u
        LOCFRAME ISTACK, 0, STACK
        LOCFRAME PSTACK, 0, STACK
        LOCFRAME XSTACK, 9, STACK
        LOCFRAME IOVERLAY, 0, STATIC
        LOCFRAME DOVERLAY, 0, STATIC
        ARGFRAME ISTACK, 0, STACK
        ARGFRAME PSTACK, 0, STACK
        ARGFRAME XSTACK, 9, STACK
        ARGFRAME IOVERLAY, 0, STATIC
        ARGFRAME DOVERLAY, 0, STATIC
        FUNCALL Sendack, Delay_1u
        LOCFRAME ISTACK, 0, STACK
        LOCFRAME PSTACK, 0, STACK
        LOCFRAME XSTACK, 9, STACK
        LOCFRAME IOVERLAY, 0, STATIC
        LOCFRAME DOVERLAY, 0, STATIC
        ARGFRAME ISTACK, 0, STACK
        ARGFRAME PSTACK, 0, STACK
        ARGFRAME XSTACK, 9, STACK
        ARGFRAME IOVERLAY, 0, STATIC
        ARGFRAME DOVERLAY, 0, STATIC
        FUNCALL Sendack, Delay_1u
        LOCFRAME ISTACK, 0, STACK
        LOCFRAME PSTACK, 0, STACK
        LOCFRAME XSTACK, 9, STACK
        LOCFRAME IOVERLAY, 0, STATIC
        LOCFRAME DOVERLAY, 0, STATIC
        ARGFRAME ISTACK, 0, STACK
        ARGFRAME PSTACK, 0, STACK
        ARGFRAME XSTACK, 9, STACK
        ARGFRAME IOVERLAY, 0, STATIC
        ARGFRAME DOVERLAY, 0, STATIC
        MOV     A,#-0x9
        LCALL   ?BANKED_ENTER_XDATA
        CFI DPH0 load(1, XDATA, add(CFA_XSP16, literal(-1)))
        CFI DPL0 load(1, XDATA, add(CFA_XSP16, literal(-2)))
        CFI ?BRET_EXT load(1, XDATA, add(CFA_XSP16, literal(-3)))
        CFI ?RET_HIGH load(1, XDATA, add(CFA_XSP16, literal(-4)))
        CFI ?RET_LOW load(1, XDATA, add(CFA_XSP16, literal(-5)))
        CFI R7 load(1, XDATA, add(CFA_XSP16, literal(-6)))
        CFI V0 load(1, XDATA, add(CFA_XSP16, literal(-7)))
        CFI VB load(1, XDATA, add(CFA_XSP16, literal(-8)))
        CFI R6 load(1, XDATA, add(CFA_XSP16, literal(-9)))
        CFI CFA_SP SP+0
        CFI CFA_XSP16 add(XSP16, 9)
        ; Saved register size: 9
        ; Auto size: 0
        MOV     A,R1
        MOV     R6,A
//  139     SCL=0;
        CLR     0x90.2
//  140     Delay_1u(5);
        ; Setup parameters for call to function Delay_1u
        MOV     R2,#0x5
        MOV     R3,#0x0
        LCALL   ??Delay_1u?relay
//  141     SDADirOut;
        ORL     0xfe,#0x8
//  142     Delay(5);
        ; Setup parameters for call to function Delay
        MOV     R2,#0x5
        MOV     R3,#0x0
        LCALL   ??Delay?relay
//  143     SDA=h&0x01;
        MOV     A,R6
        MOV     C,0xE0 /* A   */.0
        MOV     0x90.3,C
//  144     Delay_1u(5);
        ; Setup parameters for call to function Delay_1u
        LCALL   ?Subroutine7 & 0xFFFF
//  145     SCL=1;
//  146     Delay_1u(5);
//  147     SCL=0;
??CrossCallReturnLabel_23:
        CLR     0x90.2
//  148     Delay_1u(5);
        ; Setup parameters for call to function Delay_1u
        MOV     R2,#0x5
        MOV     R3,#0x0
        LCALL   ??Delay_1u?relay
//  149 }
        SJMP    ??Subroutine17_0
        CFI EndBlock cfiBlock43
        REQUIRE _A_P1
        REQUIRE P1DIR

        RSEG BANKED_CODE:CODE:NOROOT(0)
?Subroutine17:
        CFI Block cfiBlock44 Using cfiCommon0
        CFI NoFunction
        CFI CFA_SP SP+0
        CFI CFA_XSP16 add(XSP16, 9)
        CFI VB load(1, XDATA, add(CFA_XSP16, literal(-8)))
        CFI DPL0 load(1, XDATA, add(CFA_XSP16, literal(-2)))
        CFI DPH0 load(1, XDATA, add(CFA_XSP16, literal(-1)))
        CFI R6 load(1, XDATA, add(CFA_XSP16, literal(-9)))
        CFI R7 load(1, XDATA, add(CFA_XSP16, literal(-6)))
        CFI V0 load(1, XDATA, add(CFA_XSP16, literal(-7)))
        CFI ?BRET_EXT load(1, XDATA, add(CFA_XSP16, literal(-3)))
        CFI ?RET_HIGH load(1, XDATA, add(CFA_XSP16, literal(-4)))
        CFI ?RET_LOW load(1, XDATA, add(CFA_XSP16, literal(-5)))
        MOV     R1,A
??Subroutine17_0:
        MOV     R7,#0x1
        LJMP    ?BANKED_LEAVE_XDATA
        CFI EndBlock cfiBlock44
//  150 

        RSEG BANKED_CODE:CODE:NOROOT(0)
//  151 INT8U I2C_Check_ack(void){
I2C_Check_ack:
        CFI Block cfiBlock45 Using cfiCommon0
        CFI Function I2C_Check_ack
        FUNCALL I2C_Check_ack, Delay_1u
        LOCFRAME ISTACK, 2, STACK
        LOCFRAME PSTACK, 0, STACK
        LOCFRAME XSTACK, 0, STACK
        LOCFRAME IOVERLAY, 0, STATIC
        LOCFRAME DOVERLAY, 0, STATIC
        ARGFRAME ISTACK, 2, STACK
        ARGFRAME PSTACK, 0, STACK
        ARGFRAME XSTACK, 0, STACK
        ARGFRAME IOVERLAY, 0, STATIC
        ARGFRAME DOVERLAY, 0, STATIC
        FUNCALL I2C_Check_ack, Delay_1u
        LOCFRAME ISTACK, 2, STACK
        LOCFRAME PSTACK, 0, STACK
        LOCFRAME XSTACK, 0, STACK
        LOCFRAME IOVERLAY, 0, STATIC
        LOCFRAME DOVERLAY, 0, STATIC
        ARGFRAME ISTACK, 2, STACK
        ARGFRAME PSTACK, 0, STACK
        ARGFRAME XSTACK, 0, STACK
        ARGFRAME IOVERLAY, 0, STATIC
        ARGFRAME DOVERLAY, 0, STATIC
        FUNCALL I2C_Check_ack, Delay_1u
        LOCFRAME ISTACK, 2, STACK
        LOCFRAME PSTACK, 0, STACK
        LOCFRAME XSTACK, 0, STACK
        LOCFRAME IOVERLAY, 0, STATIC
        LOCFRAME DOVERLAY, 0, STATIC
        ARGFRAME ISTACK, 2, STACK
        ARGFRAME PSTACK, 0, STACK
        ARGFRAME XSTACK, 0, STACK
        ARGFRAME IOVERLAY, 0, STATIC
        ARGFRAME DOVERLAY, 0, STATIC
        PUSH    DPL
        CFI DPL0 Frame(CFA_SP, 4)
        CFI CFA_SP SP+-4
        PUSH    DPH
        CFI DPH0 Frame(CFA_SP, 5)
        CFI CFA_SP SP+-5
        ; Saved register size: 2
        ; Auto size: 0
//  152     SCL=0;
        CLR     0x90.2
//  153     Delay_1u(5);
        ; Setup parameters for call to function Delay_1u
        MOV     R2,#0x5
        MOV     R3,#0x0
        LCALL   ??Delay_1u?relay
//  154     SDADirOut;
        ORL     0xfe,#0x8
//  155     SDA=1;
        SETB    0x90.3
//  156     SDADirIn;
        ANL     0xfe,#0xf7
//  157     Delay_1u(5);          //此处是否有必要使SDA先拉高？！？！
        ; Setup parameters for call to function Delay_1u
        LCALL   ?Subroutine6 & 0xFFFF
//  158     SCL=1;
//  159     Delay_1u(5);
//  160     if(SDA==1)
??CrossCallReturnLabel_20:
        CLR     0x90.2
        JNC     ??I2C_Check_ack_0
//  161     {
//  162         SCL=0;
//  163         return 0;  //er
        MOV     R1,#0x0
        SJMP    ??I2C_Check_ack_1
//  164     }
//  165     SCL=0;
//  166     return 1;
??I2C_Check_ack_0:
        MOV     R1,#0x1
??I2C_Check_ack_1:
        SJMP    ??Subroutine14_0
        CFI EndBlock cfiBlock45
        REQUIRE _A_P1
        REQUIRE P1DIR
//  167 }

        RSEG BANKED_CODE:CODE:NOROOT(0)
?Subroutine14:
        CFI Block cfiBlock46 Using cfiCommon0
        CFI NoFunction
        CFI CFA_SP SP+-5
        CFI DPL0 Frame(CFA_SP, 4)
        CFI DPH0 Frame(CFA_SP, 5)
        MOV     R2,#0x5
        MOV     R3,#0x0
        LCALL   ??Delay_1u?relay
??Subroutine14_0:
        POP     DPH
        CFI CFA_SP SP+-4
        CFI DPH0 SameValue
        POP     DPL
        CFI CFA_SP SP+-3
        CFI DPL0 SameValue
        LJMP    ?BRET
        CFI EndBlock cfiBlock46
//  168 
//  169 
//  170 
//  171 

        RSEG BANKED_CODE:CODE:NOROOT(0)
//  172 void WriteI2CByte_1(unsigned char b)
WriteI2CByte_1:
        CFI Block cfiBlock47 Using cfiCommon0
        CFI Function WriteI2CByte_1
//  173 {
        FUNCALL WriteI2CByte_1, Delay_1u
        LOCFRAME ISTACK, 0, STACK
        LOCFRAME PSTACK, 0, STACK
        LOCFRAME XSTACK, 9, STACK
        LOCFRAME IOVERLAY, 0, STATIC
        LOCFRAME DOVERLAY, 0, STATIC
        ARGFRAME ISTACK, 0, STACK
        ARGFRAME PSTACK, 0, STACK
        ARGFRAME XSTACK, 9, STACK
        ARGFRAME IOVERLAY, 0, STATIC
        ARGFRAME DOVERLAY, 0, STATIC
        FUNCALL WriteI2CByte_1, Delay_1u
        LOCFRAME ISTACK, 0, STACK
        LOCFRAME PSTACK, 0, STACK
        LOCFRAME XSTACK, 9, STACK
        LOCFRAME IOVERLAY, 0, STATIC
        LOCFRAME DOVERLAY, 0, STATIC
        ARGFRAME ISTACK, 0, STACK
        ARGFRAME PSTACK, 0, STACK
        ARGFRAME XSTACK, 9, STACK
        ARGFRAME IOVERLAY, 0, STATIC
        ARGFRAME DOVERLAY, 0, STATIC
        FUNCALL WriteI2CByte_1, Delay_1u
        LOCFRAME ISTACK, 0, STACK
        LOCFRAME PSTACK, 0, STACK
        LOCFRAME XSTACK, 9, STACK
        LOCFRAME IOVERLAY, 0, STATIC
        LOCFRAME DOVERLAY, 0, STATIC
        ARGFRAME ISTACK, 0, STACK
        ARGFRAME PSTACK, 0, STACK
        ARGFRAME XSTACK, 9, STACK
        ARGFRAME IOVERLAY, 0, STATIC
        ARGFRAME DOVERLAY, 0, STATIC
        FUNCALL WriteI2CByte_1, I2C_Check_ack
        LOCFRAME ISTACK, 0, STACK
        LOCFRAME PSTACK, 0, STACK
        LOCFRAME XSTACK, 9, STACK
        LOCFRAME IOVERLAY, 0, STATIC
        LOCFRAME DOVERLAY, 0, STATIC
        ARGFRAME ISTACK, 0, STACK
        ARGFRAME PSTACK, 0, STACK
        ARGFRAME XSTACK, 9, STACK
        ARGFRAME IOVERLAY, 0, STATIC
        ARGFRAME DOVERLAY, 0, STATIC
        MOV     A,#-0x9
        LCALL   ?BANKED_ENTER_XDATA
        CFI DPH0 load(1, XDATA, add(CFA_XSP16, literal(-1)))
        CFI DPL0 load(1, XDATA, add(CFA_XSP16, literal(-2)))
        CFI ?BRET_EXT load(1, XDATA, add(CFA_XSP16, literal(-3)))
        CFI ?RET_HIGH load(1, XDATA, add(CFA_XSP16, literal(-4)))
        CFI ?RET_LOW load(1, XDATA, add(CFA_XSP16, literal(-5)))
        CFI R7 load(1, XDATA, add(CFA_XSP16, literal(-6)))
        CFI V0 load(1, XDATA, add(CFA_XSP16, literal(-7)))
        CFI VB load(1, XDATA, add(CFA_XSP16, literal(-8)))
        CFI R6 load(1, XDATA, add(CFA_XSP16, literal(-9)))
        CFI CFA_SP SP+0
        CFI CFA_XSP16 add(XSP16, 9)
        ; Saved register size: 9
        ; Auto size: 0
        MOV     A,R1
        MOV     R6,A
//  174     /*向I2C总线写一个字节*/
//  175     unsigned char e=8;
        MOV     R7,#0x8
//  176     SDADirOut;
        ORL     0xfe,#0x8
        SJMP    ??CrossCallReturnLabel_24
//  177     while(e--){
//  178         SCL=0;
//  179         Delay_1u(5);
//  180         if(b&0x80)SDA=1;
//  181         else SDA=0;
??WriteI2CByte_1_0:
        CLR     0x90.3
//  182         b<<=1;
??WriteI2CByte_1_1:
        CLR     C
        RLC     A
        MOV     R6,A
//  183         Delay_1u(3);
        ; Setup parameters for call to function Delay_1u
        MOV     R2,#0x3
        LCALL   ??Subroutine7_0 & 0xFFFF
//  184         SCL=1;
//  185         Delay_1u(5);
??CrossCallReturnLabel_24:
        MOV     A,R7
        DEC     R7
        CLR     0x90.2
        JZ      ??WriteI2CByte_1_2
        ; Setup parameters for call to function Delay_1u
        MOV     R2,#0x5
        MOV     R3,#0x0
        LCALL   ??Delay_1u?relay
        MOV     A,R6
        MOV     C,0xE0 /* A   */.7
        JNC     ??WriteI2CByte_1_0
        SETB    0x90.3
        SJMP    ??WriteI2CByte_1_1
//  186     }
//  187     SCL=0;
//  188     I2C_Check_ack();
??WriteI2CByte_1_2:
        ; Setup parameters for call to function I2C_Check_ack
        LCALL   ??I2C_Check_ack?relay
//  189 }
        SJMP    ??Subroutine17_0
        CFI EndBlock cfiBlock47
        REQUIRE _A_P1
        REQUIRE P1DIR
//  190 

        RSEG BANKED_CODE:CODE:NOROOT(0)
//  191 unsigned char ReadI2CByte_1(void)
ReadI2CByte_1:
        CFI Block cfiBlock48 Using cfiCommon0
        CFI Function ReadI2CByte_1
//  192 {
        FUNCALL ReadI2CByte_1, Delay_1u
        LOCFRAME ISTACK, 0, STACK
        LOCFRAME PSTACK, 0, STACK
        LOCFRAME XSTACK, 9, STACK
        LOCFRAME IOVERLAY, 0, STATIC
        LOCFRAME DOVERLAY, 0, STATIC
        ARGFRAME ISTACK, 0, STACK
        ARGFRAME PSTACK, 0, STACK
        ARGFRAME XSTACK, 9, STACK
        ARGFRAME IOVERLAY, 0, STATIC
        ARGFRAME DOVERLAY, 0, STATIC
        FUNCALL ReadI2CByte_1, Delay_1u
        LOCFRAME ISTACK, 0, STACK
        LOCFRAME PSTACK, 0, STACK
        LOCFRAME XSTACK, 9, STACK
        LOCFRAME IOVERLAY, 0, STATIC
        LOCFRAME DOVERLAY, 0, STATIC
        ARGFRAME ISTACK, 0, STACK
        ARGFRAME PSTACK, 0, STACK
        ARGFRAME XSTACK, 9, STACK
        ARGFRAME IOVERLAY, 0, STATIC
        ARGFRAME DOVERLAY, 0, STATIC
        FUNCALL ReadI2CByte_1, Delay_1u
        LOCFRAME ISTACK, 0, STACK
        LOCFRAME PSTACK, 0, STACK
        LOCFRAME XSTACK, 9, STACK
        LOCFRAME IOVERLAY, 0, STATIC
        LOCFRAME DOVERLAY, 0, STATIC
        ARGFRAME ISTACK, 0, STACK
        ARGFRAME PSTACK, 0, STACK
        ARGFRAME XSTACK, 9, STACK
        ARGFRAME IOVERLAY, 0, STATIC
        ARGFRAME DOVERLAY, 0, STATIC
        MOV     A,#-0x9
        LCALL   ?BANKED_ENTER_XDATA
        CFI DPH0 load(1, XDATA, add(CFA_XSP16, literal(-1)))
        CFI DPL0 load(1, XDATA, add(CFA_XSP16, literal(-2)))
        CFI ?BRET_EXT load(1, XDATA, add(CFA_XSP16, literal(-3)))
        CFI ?RET_HIGH load(1, XDATA, add(CFA_XSP16, literal(-4)))
        CFI ?RET_LOW load(1, XDATA, add(CFA_XSP16, literal(-5)))
        CFI R7 load(1, XDATA, add(CFA_XSP16, literal(-6)))
        CFI V0 load(1, XDATA, add(CFA_XSP16, literal(-7)))
        CFI VB load(1, XDATA, add(CFA_XSP16, literal(-8)))
        CFI R6 load(1, XDATA, add(CFA_XSP16, literal(-9)))
        CFI CFA_SP SP+0
        CFI CFA_XSP16 add(XSP16, 9)
        ; Saved register size: 9
        ; Auto size: 0
//  193     /*从I2C总线读一个字节*/
//  194     unsigned char i=8;
        MOV     R6,#0x8
//  195     unsigned char c=0;
        MOV     R7,#0x0
//  196     SCL=0;
        CLR     0x90.2
//  197     SDADirOut;
        ORL     0xfe,#0x8
//  198     SDA=1;
        SETB    0x90.3
//  199     Delay_1u(3);
        ; Setup parameters for call to function Delay_1u
        MOV     R2,#0x3
        MOV     R3,#0x0
        LCALL   ??Delay_1u?relay
//  200     SDADirIn;
        ANL     0xfe,#0xf7
        SJMP    ??ReadI2CByte_1_0
//  201     while(i--){
//  202         c<<=1;
//  203         SCL=0;
//  204         Delay_1u(5);
//  205         SCL=1;
//  206         Delay_1u(5);
//  207         if(SDA==1)c|=0x01;
??ReadI2CByte_1_1:
        SETB    0xE0 /* A   */.0
??ReadI2CByte_1_2:
        MOV     R7,A
??ReadI2CByte_1_0:
        MOV     A,R6
        DEC     R6
        JZ      ??ReadI2CByte_1_3
        MOV     A,R7
        CLR     C
        RLC     A
        MOV     R7,A
        CLR     0x90.2
        ; Setup parameters for call to function Delay_1u
        LCALL   ?Subroutine6 & 0xFFFF
??CrossCallReturnLabel_21:
        MOV     A,R7
        JC      ??ReadI2CByte_1_1
//  208         else c&=0xfe;
        CLR     0xE0 /* A   */.0
        SJMP    ??ReadI2CByte_1_2
//  209     }
//  210     SCL=0;
??ReadI2CByte_1_3:
        CLR     0x90.2
//  211     SDADirOut;
        ORL     0xfe,#0x8
//  212     return c;
        MOV     A,R7
        LJMP    ?Subroutine17 & 0xFFFF
        CFI EndBlock cfiBlock48
        REQUIRE _A_P1
        REQUIRE P1DIR
//  213 }

        RSEG BANKED_CODE:CODE:NOROOT(0)
?Subroutine6:
        CFI Block cfiCond49 Using cfiCommon0
        CFI NoFunction
        CFI Conditional ??CrossCallReturnLabel_20
        CFI DPL0 Frame(CFA_SP, 4)
        CFI DPH0 Frame(CFA_SP, 5)
        CFI CFA_SP SP+-5
        CFI Block cfiCond50 Using cfiCommon0
        CFI (cfiCond50) NoFunction
        CFI (cfiCond50) Conditional ??CrossCallReturnLabel_21
        CFI (cfiCond50) R6 load(1, XDATA, add(CFA_XSP16, literal(-9)))
        CFI (cfiCond50) VB load(1, XDATA, add(CFA_XSP16, literal(-8)))
        CFI (cfiCond50) V0 load(1, XDATA, add(CFA_XSP16, literal(-7)))
        CFI (cfiCond50) R7 load(1, XDATA, add(CFA_XSP16, literal(-6)))
        CFI (cfiCond50) ?RET_LOW load(1, XDATA, add(CFA_XSP16, literal(-5)))
        CFI (cfiCond50) ?RET_HIGH load(1, XDATA, add(CFA_XSP16, literal(-4)))
        CFI (cfiCond50) ?BRET_EXT load(1, XDATA, add(CFA_XSP16, literal(-3)))
        CFI (cfiCond50) DPL0 load(1, XDATA, add(CFA_XSP16, literal(-2)))
        CFI (cfiCond50) DPH0 load(1, XDATA, add(CFA_XSP16, literal(-1)))
        CFI (cfiCond50) CFA_SP SP+0
        CFI (cfiCond50) CFA_XSP16 add(XSP16, 9)
        CFI Block cfiPicker51 Using cfiCommon1
        CFI (cfiPicker51) NoFunction
        CFI (cfiPicker51) Picker
        MOV     R2,#0x5
        LCALL   ?Subroutine12 & 0xFFFF
??CrossCallReturnLabel_34:
        MOV     C,0x90.3
        RET
        CFI EndBlock cfiCond49
        CFI EndBlock cfiCond50
        CFI EndBlock cfiPicker51
//  214 //******单字节写入*******************************************
//  215 

        RSEG BANKED_CODE:CODE:NOROOT(0)
//  216 void Single_Write_ADXL345(INT8U REG_Address,INT8U REG_data)
Single_Write_ADXL345:
        CFI Block cfiBlock52 Using cfiCommon0
        CFI Function Single_Write_ADXL345
//  217 {
        FUNCALL Single_Write_ADXL345, I2C_Start_1
        LOCFRAME ISTACK, 0, STACK
        LOCFRAME PSTACK, 0, STACK
        LOCFRAME XSTACK, 9, STACK
        LOCFRAME IOVERLAY, 0, STATIC
        LOCFRAME DOVERLAY, 0, STATIC
        ARGFRAME ISTACK, 0, STACK
        ARGFRAME PSTACK, 0, STACK
        ARGFRAME XSTACK, 9, STACK
        ARGFRAME IOVERLAY, 0, STATIC
        ARGFRAME DOVERLAY, 0, STATIC
        FUNCALL Single_Write_ADXL345, WriteI2CByte_1
        LOCFRAME ISTACK, 0, STACK
        LOCFRAME PSTACK, 0, STACK
        LOCFRAME XSTACK, 9, STACK
        LOCFRAME IOVERLAY, 0, STATIC
        LOCFRAME DOVERLAY, 0, STATIC
        ARGFRAME ISTACK, 0, STACK
        ARGFRAME PSTACK, 0, STACK
        ARGFRAME XSTACK, 9, STACK
        ARGFRAME IOVERLAY, 0, STATIC
        ARGFRAME DOVERLAY, 0, STATIC
        FUNCALL Single_Write_ADXL345, WriteI2CByte_1
        LOCFRAME ISTACK, 0, STACK
        LOCFRAME PSTACK, 0, STACK
        LOCFRAME XSTACK, 9, STACK
        LOCFRAME IOVERLAY, 0, STATIC
        LOCFRAME DOVERLAY, 0, STATIC
        ARGFRAME ISTACK, 0, STACK
        ARGFRAME PSTACK, 0, STACK
        ARGFRAME XSTACK, 9, STACK
        ARGFRAME IOVERLAY, 0, STATIC
        ARGFRAME DOVERLAY, 0, STATIC
        FUNCALL Single_Write_ADXL345, WriteI2CByte_1
        LOCFRAME ISTACK, 0, STACK
        LOCFRAME PSTACK, 0, STACK
        LOCFRAME XSTACK, 9, STACK
        LOCFRAME IOVERLAY, 0, STATIC
        LOCFRAME DOVERLAY, 0, STATIC
        ARGFRAME ISTACK, 0, STACK
        ARGFRAME PSTACK, 0, STACK
        ARGFRAME XSTACK, 9, STACK
        ARGFRAME IOVERLAY, 0, STATIC
        ARGFRAME DOVERLAY, 0, STATIC
        FUNCALL Single_Write_ADXL345, I2C_Stop_1
        LOCFRAME ISTACK, 0, STACK
        LOCFRAME PSTACK, 0, STACK
        LOCFRAME XSTACK, 9, STACK
        LOCFRAME IOVERLAY, 0, STATIC
        LOCFRAME DOVERLAY, 0, STATIC
        ARGFRAME ISTACK, 0, STACK
        ARGFRAME PSTACK, 0, STACK
        ARGFRAME XSTACK, 9, STACK
        ARGFRAME IOVERLAY, 0, STATIC
        ARGFRAME DOVERLAY, 0, STATIC
        MOV     A,#-0x9
        LCALL   ?BANKED_ENTER_XDATA
        CFI DPH0 load(1, XDATA, add(CFA_XSP16, literal(-1)))
        CFI DPL0 load(1, XDATA, add(CFA_XSP16, literal(-2)))
        CFI ?BRET_EXT load(1, XDATA, add(CFA_XSP16, literal(-3)))
        CFI ?RET_HIGH load(1, XDATA, add(CFA_XSP16, literal(-4)))
        CFI ?RET_LOW load(1, XDATA, add(CFA_XSP16, literal(-5)))
        CFI R7 load(1, XDATA, add(CFA_XSP16, literal(-6)))
        CFI V0 load(1, XDATA, add(CFA_XSP16, literal(-7)))
        CFI VB load(1, XDATA, add(CFA_XSP16, literal(-8)))
        CFI R6 load(1, XDATA, add(CFA_XSP16, literal(-9)))
        CFI CFA_SP SP+0
        CFI CFA_XSP16 add(XSP16, 9)
        ; Saved register size: 9
        ; Auto size: 0
        MOV     A,R1
        MOV     R6,A
        MOV     A,R2
        MOV     R7,A
//  218     I2C_Start_1();                  //起始信号
        ; Setup parameters for call to function I2C_Start_1
        LCALL   ?Subroutine8 & 0xFFFF
//  219     WriteI2CByte_1(SlaveAddress);   //发送设备地址+写信号
//  220     WriteI2CByte_1(REG_Address);    //内部寄存器地址，请参考中文pdf22页
//  221     WriteI2CByte_1(REG_data);       //内部寄存器数据，请参考中文pdf22页
??CrossCallReturnLabel_25:
        ; Setup parameters for call to function WriteI2CByte_1
        MOV     A,R7
        MOV     R1,A
        LCALL   ??WriteI2CByte_1?relay
//  222     I2C_Stop_1();                   //发送停止信号
        ; Setup parameters for call to function I2C_Stop_1
        LCALL   ??I2C_Stop_1?relay
//  223 }
        LJMP    ??Subroutine17_0 & 0xFFFF
        CFI EndBlock cfiBlock52
//  224 
//  225 //********单字节读取*****************************************

        RSEG BANKED_CODE:CODE:NOROOT(0)
//  226 unsigned char Single_Read_ADXL345(INT8U REG_Address)
Single_Read_ADXL345:
        CFI Block cfiBlock53 Using cfiCommon0
        CFI Function Single_Read_ADXL345
//  227 {  INT8U REG_data;
        FUNCALL Single_Read_ADXL345, I2C_Start_1
        LOCFRAME ISTACK, 0, STACK
        LOCFRAME PSTACK, 0, STACK
        LOCFRAME XSTACK, 9, STACK
        LOCFRAME IOVERLAY, 0, STATIC
        LOCFRAME DOVERLAY, 0, STATIC
        ARGFRAME ISTACK, 0, STACK
        ARGFRAME PSTACK, 0, STACK
        ARGFRAME XSTACK, 9, STACK
        ARGFRAME IOVERLAY, 0, STATIC
        ARGFRAME DOVERLAY, 0, STATIC
        FUNCALL Single_Read_ADXL345, WriteI2CByte_1
        LOCFRAME ISTACK, 0, STACK
        LOCFRAME PSTACK, 0, STACK
        LOCFRAME XSTACK, 9, STACK
        LOCFRAME IOVERLAY, 0, STATIC
        LOCFRAME DOVERLAY, 0, STATIC
        ARGFRAME ISTACK, 0, STACK
        ARGFRAME PSTACK, 0, STACK
        ARGFRAME XSTACK, 9, STACK
        ARGFRAME IOVERLAY, 0, STATIC
        ARGFRAME DOVERLAY, 0, STATIC
        FUNCALL Single_Read_ADXL345, WriteI2CByte_1
        LOCFRAME ISTACK, 0, STACK
        LOCFRAME PSTACK, 0, STACK
        LOCFRAME XSTACK, 9, STACK
        LOCFRAME IOVERLAY, 0, STATIC
        LOCFRAME DOVERLAY, 0, STATIC
        ARGFRAME ISTACK, 0, STACK
        ARGFRAME PSTACK, 0, STACK
        ARGFRAME XSTACK, 9, STACK
        ARGFRAME IOVERLAY, 0, STATIC
        ARGFRAME DOVERLAY, 0, STATIC
        FUNCALL Single_Read_ADXL345, I2C_Start_1
        LOCFRAME ISTACK, 0, STACK
        LOCFRAME PSTACK, 0, STACK
        LOCFRAME XSTACK, 9, STACK
        LOCFRAME IOVERLAY, 0, STATIC
        LOCFRAME DOVERLAY, 0, STATIC
        ARGFRAME ISTACK, 0, STACK
        ARGFRAME PSTACK, 0, STACK
        ARGFRAME XSTACK, 9, STACK
        ARGFRAME IOVERLAY, 0, STATIC
        ARGFRAME DOVERLAY, 0, STATIC
        FUNCALL Single_Read_ADXL345, WriteI2CByte_1
        LOCFRAME ISTACK, 0, STACK
        LOCFRAME PSTACK, 0, STACK
        LOCFRAME XSTACK, 9, STACK
        LOCFRAME IOVERLAY, 0, STATIC
        LOCFRAME DOVERLAY, 0, STATIC
        ARGFRAME ISTACK, 0, STACK
        ARGFRAME PSTACK, 0, STACK
        ARGFRAME XSTACK, 9, STACK
        ARGFRAME IOVERLAY, 0, STATIC
        ARGFRAME DOVERLAY, 0, STATIC
        FUNCALL Single_Read_ADXL345, ReadI2CByte_1
        LOCFRAME ISTACK, 0, STACK
        LOCFRAME PSTACK, 0, STACK
        LOCFRAME XSTACK, 9, STACK
        LOCFRAME IOVERLAY, 0, STATIC
        LOCFRAME DOVERLAY, 0, STATIC
        ARGFRAME ISTACK, 0, STACK
        ARGFRAME PSTACK, 0, STACK
        ARGFRAME XSTACK, 9, STACK
        ARGFRAME IOVERLAY, 0, STATIC
        ARGFRAME DOVERLAY, 0, STATIC
        FUNCALL Single_Read_ADXL345, Sendack
        LOCFRAME ISTACK, 0, STACK
        LOCFRAME PSTACK, 0, STACK
        LOCFRAME XSTACK, 9, STACK
        LOCFRAME IOVERLAY, 0, STATIC
        LOCFRAME DOVERLAY, 0, STATIC
        ARGFRAME ISTACK, 0, STACK
        ARGFRAME PSTACK, 0, STACK
        ARGFRAME XSTACK, 9, STACK
        ARGFRAME IOVERLAY, 0, STATIC
        ARGFRAME DOVERLAY, 0, STATIC
        FUNCALL Single_Read_ADXL345, I2C_Stop_1
        LOCFRAME ISTACK, 0, STACK
        LOCFRAME PSTACK, 0, STACK
        LOCFRAME XSTACK, 9, STACK
        LOCFRAME IOVERLAY, 0, STATIC
        LOCFRAME DOVERLAY, 0, STATIC
        ARGFRAME ISTACK, 0, STACK
        ARGFRAME PSTACK, 0, STACK
        ARGFRAME XSTACK, 9, STACK
        ARGFRAME IOVERLAY, 0, STATIC
        ARGFRAME DOVERLAY, 0, STATIC
        MOV     A,#-0x9
        LCALL   ?BANKED_ENTER_XDATA
        CFI DPH0 load(1, XDATA, add(CFA_XSP16, literal(-1)))
        CFI DPL0 load(1, XDATA, add(CFA_XSP16, literal(-2)))
        CFI ?BRET_EXT load(1, XDATA, add(CFA_XSP16, literal(-3)))
        CFI ?RET_HIGH load(1, XDATA, add(CFA_XSP16, literal(-4)))
        CFI ?RET_LOW load(1, XDATA, add(CFA_XSP16, literal(-5)))
        CFI R7 load(1, XDATA, add(CFA_XSP16, literal(-6)))
        CFI V0 load(1, XDATA, add(CFA_XSP16, literal(-7)))
        CFI VB load(1, XDATA, add(CFA_XSP16, literal(-8)))
        CFI R6 load(1, XDATA, add(CFA_XSP16, literal(-9)))
        CFI CFA_SP SP+0
        CFI CFA_XSP16 add(XSP16, 9)
        ; Saved register size: 9
        ; Auto size: 0
        MOV     A,R1
        MOV     R6,A
//  228     I2C_Start_1();                          //起始信号
        ; Setup parameters for call to function I2C_Start_1
        LCALL   ?Subroutine8 & 0xFFFF
//  229     WriteI2CByte_1(SlaveAddress);           //发送设备地址+写信号
//  230     WriteI2CByte_1(REG_Address);                   //发送存储单元地址，从0开始
//  231     I2C_Start_1();                          //起始信号
??CrossCallReturnLabel_26:
        ; Setup parameters for call to function I2C_Start_1
        LCALL   ?Subroutine10 & 0xFFFF
//  232     WriteI2CByte_1(SlaveAddress+1);         //发送设备地址+读信号
//  233     REG_data=ReadI2CByte_1();              //读出寄存器数据
??CrossCallReturnLabel_27:
        ; Setup parameters for call to function ReadI2CByte_1
        LCALL   ??ReadI2CByte_1?relay
        MOV     A,R1
        MOV     R6,A
//  234     Sendack(1);
        ; Setup parameters for call to function Sendack
        MOV     R1,#0x1
        LCALL   ??Sendack?relay
//  235     I2C_Stop_1();                           //停止信号
        ; Setup parameters for call to function I2C_Stop_1
        LCALL   ??I2C_Stop_1?relay
//  236     return REG_data;
        MOV     A,R6
        LJMP    ?Subroutine17 & 0xFFFF
        CFI EndBlock cfiBlock53
//  237 }

        RSEG BANKED_CODE:CODE:NOROOT(0)
?Subroutine8:
        CFI Block cfiCond54 Using cfiCommon0
        CFI NoFunction
        CFI Conditional ??CrossCallReturnLabel_25
        CFI R6 load(1, XDATA, add(CFA_XSP16, literal(-9)))
        CFI VB load(1, XDATA, add(CFA_XSP16, literal(-8)))
        CFI V0 load(1, XDATA, add(CFA_XSP16, literal(-7)))
        CFI R7 load(1, XDATA, add(CFA_XSP16, literal(-6)))
        CFI ?RET_LOW load(1, XDATA, add(CFA_XSP16, literal(-5)))
        CFI ?RET_HIGH load(1, XDATA, add(CFA_XSP16, literal(-4)))
        CFI ?BRET_EXT load(1, XDATA, add(CFA_XSP16, literal(-3)))
        CFI DPL0 load(1, XDATA, add(CFA_XSP16, literal(-2)))
        CFI DPH0 load(1, XDATA, add(CFA_XSP16, literal(-1)))
        CFI CFA_SP SP+0
        CFI CFA_XSP16 add(XSP16, 9)
        CFI Block cfiCond55 Using cfiCommon0
        CFI (cfiCond55) NoFunction
        CFI (cfiCond55) Conditional ??CrossCallReturnLabel_26
        CFI (cfiCond55) R6 load(1, XDATA, add(CFA_XSP16, literal(-9)))
        CFI (cfiCond55) VB load(1, XDATA, add(CFA_XSP16, literal(-8)))
        CFI (cfiCond55) V0 load(1, XDATA, add(CFA_XSP16, literal(-7)))
        CFI (cfiCond55) R7 load(1, XDATA, add(CFA_XSP16, literal(-6)))
        CFI (cfiCond55) ?RET_LOW load(1, XDATA, add(CFA_XSP16, literal(-5)))
        CFI (cfiCond55) ?RET_HIGH load(1, XDATA, add(CFA_XSP16, literal(-4)))
        CFI (cfiCond55) ?BRET_EXT load(1, XDATA, add(CFA_XSP16, literal(-3)))
        CFI (cfiCond55) DPL0 load(1, XDATA, add(CFA_XSP16, literal(-2)))
        CFI (cfiCond55) DPH0 load(1, XDATA, add(CFA_XSP16, literal(-1)))
        CFI (cfiCond55) CFA_SP SP+0
        CFI (cfiCond55) CFA_XSP16 add(XSP16, 9)
        CFI Block cfiPicker56 Using cfiCommon1
        CFI (cfiPicker56) NoFunction
        CFI (cfiPicker56) Picker
        LCALL   ?Subroutine13 & 0xFFFF
??CrossCallReturnLabel_31:
        ; Setup parameters for call to function WriteI2CByte_1
        ; Setup parameters for call to function WriteI2CByte_1
        MOV     A,R6
        MOV     R1,A
        LCALL   ??WriteI2CByte_1?relay
        RET
        CFI EndBlock cfiCond54
        CFI EndBlock cfiCond55
        CFI EndBlock cfiPicker56
//  238 

        RSEG BANKED_CODE:CODE:NOROOT(0)
//  239 void Init_ADXL345()
Init_ADXL345:
        CFI Block cfiBlock57 Using cfiCommon0
        CFI Function Init_ADXL345
//  240 {
        FUNCALL Init_ADXL345, Single_Write_ADXL345
        LOCFRAME ISTACK, 2, STACK
        LOCFRAME PSTACK, 0, STACK
        LOCFRAME XSTACK, 0, STACK
        LOCFRAME IOVERLAY, 0, STATIC
        LOCFRAME DOVERLAY, 0, STATIC
        ARGFRAME ISTACK, 2, STACK
        ARGFRAME PSTACK, 0, STACK
        ARGFRAME XSTACK, 0, STACK
        ARGFRAME IOVERLAY, 0, STATIC
        ARGFRAME DOVERLAY, 0, STATIC
        FUNCALL Init_ADXL345, Single_Write_ADXL345
        LOCFRAME ISTACK, 2, STACK
        LOCFRAME PSTACK, 0, STACK
        LOCFRAME XSTACK, 0, STACK
        LOCFRAME IOVERLAY, 0, STATIC
        LOCFRAME DOVERLAY, 0, STATIC
        ARGFRAME ISTACK, 2, STACK
        ARGFRAME PSTACK, 0, STACK
        ARGFRAME XSTACK, 0, STACK
        ARGFRAME IOVERLAY, 0, STATIC
        ARGFRAME DOVERLAY, 0, STATIC
        FUNCALL Init_ADXL345, Single_Write_ADXL345
        LOCFRAME ISTACK, 2, STACK
        LOCFRAME PSTACK, 0, STACK
        LOCFRAME XSTACK, 0, STACK
        LOCFRAME IOVERLAY, 0, STATIC
        LOCFRAME DOVERLAY, 0, STATIC
        ARGFRAME ISTACK, 2, STACK
        ARGFRAME PSTACK, 0, STACK
        ARGFRAME XSTACK, 0, STACK
        ARGFRAME IOVERLAY, 0, STATIC
        ARGFRAME DOVERLAY, 0, STATIC
        FUNCALL Init_ADXL345, Single_Write_ADXL345
        LOCFRAME ISTACK, 2, STACK
        LOCFRAME PSTACK, 0, STACK
        LOCFRAME XSTACK, 0, STACK
        LOCFRAME IOVERLAY, 0, STATIC
        LOCFRAME DOVERLAY, 0, STATIC
        ARGFRAME ISTACK, 2, STACK
        ARGFRAME PSTACK, 0, STACK
        ARGFRAME XSTACK, 0, STACK
        ARGFRAME IOVERLAY, 0, STATIC
        ARGFRAME DOVERLAY, 0, STATIC
        FUNCALL Init_ADXL345, Single_Write_ADXL345
        LOCFRAME ISTACK, 2, STACK
        LOCFRAME PSTACK, 0, STACK
        LOCFRAME XSTACK, 0, STACK
        LOCFRAME IOVERLAY, 0, STATIC
        LOCFRAME DOVERLAY, 0, STATIC
        ARGFRAME ISTACK, 2, STACK
        ARGFRAME PSTACK, 0, STACK
        ARGFRAME XSTACK, 0, STACK
        ARGFRAME IOVERLAY, 0, STATIC
        ARGFRAME DOVERLAY, 0, STATIC
        FUNCALL Init_ADXL345, Single_Write_ADXL345
        LOCFRAME ISTACK, 2, STACK
        LOCFRAME PSTACK, 0, STACK
        LOCFRAME XSTACK, 0, STACK
        LOCFRAME IOVERLAY, 0, STATIC
        LOCFRAME DOVERLAY, 0, STATIC
        ARGFRAME ISTACK, 2, STACK
        ARGFRAME PSTACK, 0, STACK
        ARGFRAME XSTACK, 0, STACK
        ARGFRAME IOVERLAY, 0, STATIC
        ARGFRAME DOVERLAY, 0, STATIC
        FUNCALL Init_ADXL345, Single_Write_ADXL345
        LOCFRAME ISTACK, 2, STACK
        LOCFRAME PSTACK, 0, STACK
        LOCFRAME XSTACK, 0, STACK
        LOCFRAME IOVERLAY, 0, STATIC
        LOCFRAME DOVERLAY, 0, STATIC
        ARGFRAME ISTACK, 2, STACK
        ARGFRAME PSTACK, 0, STACK
        ARGFRAME XSTACK, 0, STACK
        ARGFRAME IOVERLAY, 0, STATIC
        ARGFRAME DOVERLAY, 0, STATIC
        PUSH    DPL
        CFI DPL0 Frame(CFA_SP, 4)
        CFI CFA_SP SP+-4
        PUSH    DPH
        CFI DPH0 Frame(CFA_SP, 5)
        CFI CFA_SP SP+-5
        ; Saved register size: 2
        ; Auto size: 0
//  241     P1DIR = 0x0C;
        MOV     0xfe,#0xc
//  242     Single_Write_ADXL345(0x31,0x0B);   //测量范围,正负16g，13位模式
        ; Setup parameters for call to function Single_Write_ADXL345
        MOV     R2,#0xb
        MOV     R1,#0x31
        LCALL   ??Single_Write_ADXL345?relay
//  243     Single_Write_ADXL345(0x2C,0x0F);   //速率设定为12.5 参考pdf13页
        ; Setup parameters for call to function Single_Write_ADXL345
        MOV     R2,#0xf
        MOV     R1,#0x2c
        LCALL   ??Single_Write_ADXL345?relay
//  244     Single_Write_ADXL345(0x2D,0x08);   //选择电源模式   参考pdf24页
        ; Setup parameters for call to function Single_Write_ADXL345
        MOV     R2,#0x8
        MOV     R1,#0x2d
        LCALL   ??Single_Write_ADXL345?relay
//  245     Single_Write_ADXL345(0x2E,0x80);   //使能 DATA_READY 中断
        ; Setup parameters for call to function Single_Write_ADXL345
        MOV     R2,#-0x80
        MOV     R1,#0x2e
        LCALL   ??Single_Write_ADXL345?relay
//  246     Single_Write_ADXL345(0x1E,0x00);   //X 偏移量 根据测试传感器的状态写入pdf29页
        ; Setup parameters for call to function Single_Write_ADXL345
        MOV     R2,#0x0
        MOV     R1,#0x1e
        LCALL   ??Single_Write_ADXL345?relay
//  247     Single_Write_ADXL345(0x1F,0x00);   //Y 偏移量 根据测试传感器的状态写入pdf29页
        ; Setup parameters for call to function Single_Write_ADXL345
        MOV     R2,#0x0
        MOV     R1,#0x1f
        LCALL   ??Single_Write_ADXL345?relay
//  248     Single_Write_ADXL345(0x20,0x05);   //Z 偏移量 根据测试传感器的状态写入pdf29页
        ; Setup parameters for call to function Single_Write_ADXL345
        MOV     R2,#0x5
        MOV     R1,#0x20
        LCALL   ??Single_Write_ADXL345?relay
//  249 }
        LJMP    ??Subroutine14_0 & 0xFFFF
        CFI EndBlock cfiBlock57
        REQUIRE P1DIR
//  250 
//  251 //*********************************************************
//  252 //
//  253 //连续读出ADXL345内部加速度数据，地址范围0x32~0x37
//  254 //
//  255 //*********************************************************

        RSEG BANKED_CODE:CODE:NOROOT(0)
//  256 void Multiple_Read_ADXL345(void)
Multiple_Read_ADXL345:
        CFI Block cfiBlock58 Using cfiCommon0
        CFI Function Multiple_Read_ADXL345
//  257 {   INT8U f;
        FUNCALL Multiple_Read_ADXL345, I2C_Start_1
        LOCFRAME ISTACK, 0, STACK
        LOCFRAME PSTACK, 0, STACK
        LOCFRAME XSTACK, 10, STACK
        LOCFRAME IOVERLAY, 0, STATIC
        LOCFRAME DOVERLAY, 0, STATIC
        ARGFRAME ISTACK, 0, STACK
        ARGFRAME PSTACK, 0, STACK
        ARGFRAME XSTACK, 10, STACK
        ARGFRAME IOVERLAY, 0, STATIC
        ARGFRAME DOVERLAY, 0, STATIC
        FUNCALL Multiple_Read_ADXL345, WriteI2CByte_1
        LOCFRAME ISTACK, 0, STACK
        LOCFRAME PSTACK, 0, STACK
        LOCFRAME XSTACK, 10, STACK
        LOCFRAME IOVERLAY, 0, STATIC
        LOCFRAME DOVERLAY, 0, STATIC
        ARGFRAME ISTACK, 0, STACK
        ARGFRAME PSTACK, 0, STACK
        ARGFRAME XSTACK, 10, STACK
        ARGFRAME IOVERLAY, 0, STATIC
        ARGFRAME DOVERLAY, 0, STATIC
        FUNCALL Multiple_Read_ADXL345, WriteI2CByte_1
        LOCFRAME ISTACK, 0, STACK
        LOCFRAME PSTACK, 0, STACK
        LOCFRAME XSTACK, 10, STACK
        LOCFRAME IOVERLAY, 0, STATIC
        LOCFRAME DOVERLAY, 0, STATIC
        ARGFRAME ISTACK, 0, STACK
        ARGFRAME PSTACK, 0, STACK
        ARGFRAME XSTACK, 10, STACK
        ARGFRAME IOVERLAY, 0, STATIC
        ARGFRAME DOVERLAY, 0, STATIC
        FUNCALL Multiple_Read_ADXL345, I2C_Start_1
        LOCFRAME ISTACK, 0, STACK
        LOCFRAME PSTACK, 0, STACK
        LOCFRAME XSTACK, 10, STACK
        LOCFRAME IOVERLAY, 0, STATIC
        LOCFRAME DOVERLAY, 0, STATIC
        ARGFRAME ISTACK, 0, STACK
        ARGFRAME PSTACK, 0, STACK
        ARGFRAME XSTACK, 10, STACK
        ARGFRAME IOVERLAY, 0, STATIC
        ARGFRAME DOVERLAY, 0, STATIC
        FUNCALL Multiple_Read_ADXL345, WriteI2CByte_1
        LOCFRAME ISTACK, 0, STACK
        LOCFRAME PSTACK, 0, STACK
        LOCFRAME XSTACK, 10, STACK
        LOCFRAME IOVERLAY, 0, STATIC
        LOCFRAME DOVERLAY, 0, STATIC
        ARGFRAME ISTACK, 0, STACK
        ARGFRAME PSTACK, 0, STACK
        ARGFRAME XSTACK, 10, STACK
        ARGFRAME IOVERLAY, 0, STATIC
        ARGFRAME DOVERLAY, 0, STATIC
        FUNCALL Multiple_Read_ADXL345, ReadI2CByte_1
        LOCFRAME ISTACK, 0, STACK
        LOCFRAME PSTACK, 0, STACK
        LOCFRAME XSTACK, 10, STACK
        LOCFRAME IOVERLAY, 0, STATIC
        LOCFRAME DOVERLAY, 0, STATIC
        ARGFRAME ISTACK, 0, STACK
        ARGFRAME PSTACK, 0, STACK
        ARGFRAME XSTACK, 10, STACK
        ARGFRAME IOVERLAY, 0, STATIC
        ARGFRAME DOVERLAY, 0, STATIC
        FUNCALL Multiple_Read_ADXL345, Sendack
        LOCFRAME ISTACK, 0, STACK
        LOCFRAME PSTACK, 0, STACK
        LOCFRAME XSTACK, 10, STACK
        LOCFRAME IOVERLAY, 0, STATIC
        LOCFRAME DOVERLAY, 0, STATIC
        ARGFRAME ISTACK, 0, STACK
        ARGFRAME PSTACK, 0, STACK
        ARGFRAME XSTACK, 10, STACK
        ARGFRAME IOVERLAY, 0, STATIC
        ARGFRAME DOVERLAY, 0, STATIC
        FUNCALL Multiple_Read_ADXL345, Sendack
        LOCFRAME ISTACK, 0, STACK
        LOCFRAME PSTACK, 0, STACK
        LOCFRAME XSTACK, 10, STACK
        LOCFRAME IOVERLAY, 0, STATIC
        LOCFRAME DOVERLAY, 0, STATIC
        ARGFRAME ISTACK, 0, STACK
        ARGFRAME PSTACK, 0, STACK
        ARGFRAME XSTACK, 10, STACK
        ARGFRAME IOVERLAY, 0, STATIC
        ARGFRAME DOVERLAY, 0, STATIC
        FUNCALL Multiple_Read_ADXL345, I2C_Stop_1
        LOCFRAME ISTACK, 0, STACK
        LOCFRAME PSTACK, 0, STACK
        LOCFRAME XSTACK, 10, STACK
        LOCFRAME IOVERLAY, 0, STATIC
        LOCFRAME DOVERLAY, 0, STATIC
        ARGFRAME ISTACK, 0, STACK
        ARGFRAME PSTACK, 0, STACK
        ARGFRAME XSTACK, 10, STACK
        ARGFRAME IOVERLAY, 0, STATIC
        ARGFRAME DOVERLAY, 0, STATIC
        MOV     A,#-0xa
        LCALL   ?BANKED_ENTER_XDATA
        CFI DPH0 load(1, XDATA, add(CFA_XSP16, literal(-1)))
        CFI DPL0 load(1, XDATA, add(CFA_XSP16, literal(-2)))
        CFI ?BRET_EXT load(1, XDATA, add(CFA_XSP16, literal(-3)))
        CFI ?RET_HIGH load(1, XDATA, add(CFA_XSP16, literal(-4)))
        CFI ?RET_LOW load(1, XDATA, add(CFA_XSP16, literal(-5)))
        CFI R7 load(1, XDATA, add(CFA_XSP16, literal(-6)))
        CFI V1 load(1, XDATA, add(CFA_XSP16, literal(-7)))
        CFI V0 load(1, XDATA, add(CFA_XSP16, literal(-8)))
        CFI VB load(1, XDATA, add(CFA_XSP16, literal(-9)))
        CFI R6 load(1, XDATA, add(CFA_XSP16, literal(-10)))
        CFI CFA_SP SP+0
        CFI CFA_XSP16 add(XSP16, 10)
        ; Saved register size: 10
        ; Auto size: 0
//  258     I2C_Start_1();                          //起始信号
        ; Setup parameters for call to function I2C_Start_1
        LCALL   ?Subroutine13 & 0xFFFF
//  259     WriteI2CByte_1(SlaveAddress);           //发送设备地址+写信号
//  260     WriteI2CByte_1(0x32);                   //发送存储单元地址，从0x32开始
??CrossCallReturnLabel_32:
        ; Setup parameters for call to function WriteI2CByte_1
        MOV     R1,#0x32
        LCALL   ??WriteI2CByte_1?relay
//  261     I2C_Start_1();                          //起始信号
        ; Setup parameters for call to function I2C_Start_1
        LCALL   ?Subroutine10 & 0xFFFF
//  262     WriteI2CByte_1(SlaveAddress+1);         //发送设备地址+读信号
//  263     for (f=0; f<6; f++)                      //连续读取6个地址数据，存储中BUF
??CrossCallReturnLabel_28:
        MOV     R6,#0x0
//  264     {
//  265         POS_TEMP[f] = ReadI2CByte_1();          //BUF[0]存储0x32地址中的数据
??Multiple_Read_ADXL345_0:
        ; Setup parameters for call to function ReadI2CByte_1
        LCALL   ??ReadI2CByte_1?relay
        MOV     ?V0 + 0,R6
        MOV     A,?V0 + 0
        ADD     A,#(POS_TEMP & 0xff)
        MOV     DPL,A
        CLR     A
        ADDC    A,#((POS_TEMP >> 8) & 0xff)
        MOV     DPH,A
        MOV     A,R1
        MOVX    @DPTR,A
//  266         if (f == 5)
        MOV     A,#0x5
        XRL     A,R6
        JNZ     ??Multiple_Read_ADXL345_1
//  267         {
//  268             Sendack(1);                //最后一个数据需要回NOACK
        ; Setup parameters for call to function Sendack
        MOV     R1,#0x1
        SJMP    ??Multiple_Read_ADXL345_2
//  269         }
//  270         else
//  271         {
//  272             Sendack(0);                //回应ACK
??Multiple_Read_ADXL345_1:
        ; Setup parameters for call to function Sendack
        MOV     R1,#0x0
??Multiple_Read_ADXL345_2:
        LCALL   ??Sendack?relay
//  273         }
//  274     }
        INC     R6
        MOV     A,R6
        CLR     C
        SUBB    A,#0x6
        JC      ??Multiple_Read_ADXL345_0
//  275     I2C_Stop_1();                          //停止信号
        ; Setup parameters for call to function I2C_Stop_1
        LCALL   ??I2C_Stop_1?relay
//  276 }
        MOV     R7,#0x2
        LJMP    ?BANKED_LEAVE_XDATA
        CFI EndBlock cfiBlock58

        RSEG BANKED_CODE:CODE:NOROOT(0)
?Subroutine13:
        CFI Block cfiCond59 Using cfiCommon0
        CFI NoFunction
        CFI Conditional ??CrossCallReturnLabel_31, ??CrossCallReturnLabel_25
        CFI R6 load(1, XDATA, add(CFA_XSP16, literal(-9)))
        CFI VB load(1, XDATA, add(CFA_XSP16, literal(-8)))
        CFI V0 load(1, XDATA, add(CFA_XSP16, literal(-7)))
        CFI R7 load(1, XDATA, add(CFA_XSP16, literal(-6)))
        CFI ?RET_LOW load(1, XDATA, add(CFA_XSP16, literal(-5)))
        CFI ?RET_HIGH load(1, XDATA, add(CFA_XSP16, literal(-4)))
        CFI ?BRET_EXT load(1, XDATA, add(CFA_XSP16, literal(-3)))
        CFI DPL0 load(1, XDATA, add(CFA_XSP16, literal(-2)))
        CFI DPH0 load(1, XDATA, add(CFA_XSP16, literal(-1)))
        CFI CFA_SP SP+0
        CFI CFA_XSP16 add(XSP16, 9)
        CFI Block cfiCond60 Using cfiCommon0
        CFI (cfiCond60) NoFunction
        CFI (cfiCond60) Conditional ??CrossCallReturnLabel_31, ??CrossCallReturnLabel_26
        CFI (cfiCond60) R6 load(1, XDATA, add(CFA_XSP16, literal(-9)))
        CFI (cfiCond60) VB load(1, XDATA, add(CFA_XSP16, literal(-8)))
        CFI (cfiCond60) V0 load(1, XDATA, add(CFA_XSP16, literal(-7)))
        CFI (cfiCond60) R7 load(1, XDATA, add(CFA_XSP16, literal(-6)))
        CFI (cfiCond60) ?RET_LOW load(1, XDATA, add(CFA_XSP16, literal(-5)))
        CFI (cfiCond60) ?RET_HIGH load(1, XDATA, add(CFA_XSP16, literal(-4)))
        CFI (cfiCond60) ?BRET_EXT load(1, XDATA, add(CFA_XSP16, literal(-3)))
        CFI (cfiCond60) DPL0 load(1, XDATA, add(CFA_XSP16, literal(-2)))
        CFI (cfiCond60) DPH0 load(1, XDATA, add(CFA_XSP16, literal(-1)))
        CFI (cfiCond60) CFA_SP SP+0
        CFI (cfiCond60) CFA_XSP16 add(XSP16, 9)
        CFI Block cfiCond61 Using cfiCommon0
        CFI (cfiCond61) NoFunction
        CFI (cfiCond61) Conditional ??CrossCallReturnLabel_32
        CFI (cfiCond61) R6 load(1, XDATA, add(CFA_XSP16, literal(-10)))
        CFI (cfiCond61) VB load(1, XDATA, add(CFA_XSP16, literal(-9)))
        CFI (cfiCond61) V0 load(1, XDATA, add(CFA_XSP16, literal(-8)))
        CFI (cfiCond61) V1 load(1, XDATA, add(CFA_XSP16, literal(-7)))
        CFI (cfiCond61) R7 load(1, XDATA, add(CFA_XSP16, literal(-6)))
        CFI (cfiCond61) ?RET_LOW load(1, XDATA, add(CFA_XSP16, literal(-5)))
        CFI (cfiCond61) ?RET_HIGH load(1, XDATA, add(CFA_XSP16, literal(-4)))
        CFI (cfiCond61) ?BRET_EXT load(1, XDATA, add(CFA_XSP16, literal(-3)))
        CFI (cfiCond61) DPL0 load(1, XDATA, add(CFA_XSP16, literal(-2)))
        CFI (cfiCond61) DPH0 load(1, XDATA, add(CFA_XSP16, literal(-1)))
        CFI (cfiCond61) CFA_SP SP+0
        CFI (cfiCond61) CFA_XSP16 add(XSP16, 10)
        CFI Block cfiPicker62 Using cfiCommon1
        CFI (cfiPicker62) NoFunction
        CFI (cfiPicker62) Picker
        LCALL   ??I2C_Start_1?relay
        ; Setup parameters for call to function WriteI2CByte_1
        ; Setup parameters for call to function WriteI2CByte_1
        ; Setup parameters for call to function WriteI2CByte_1
        MOV     R1,#-0x5a
        LCALL   ??WriteI2CByte_1?relay
        RET
        CFI EndBlock cfiCond59
        CFI EndBlock cfiCond60
        CFI EndBlock cfiCond61
        CFI EndBlock cfiPicker62

        RSEG BANKED_CODE:CODE:NOROOT(0)
?Subroutine10:
        CFI Block cfiCond63 Using cfiCommon0
        CFI NoFunction
        CFI Conditional ??CrossCallReturnLabel_27
        CFI R6 load(1, XDATA, add(CFA_XSP16, literal(-9)))
        CFI VB load(1, XDATA, add(CFA_XSP16, literal(-8)))
        CFI V0 load(1, XDATA, add(CFA_XSP16, literal(-7)))
        CFI R7 load(1, XDATA, add(CFA_XSP16, literal(-6)))
        CFI ?RET_LOW load(1, XDATA, add(CFA_XSP16, literal(-5)))
        CFI ?RET_HIGH load(1, XDATA, add(CFA_XSP16, literal(-4)))
        CFI ?BRET_EXT load(1, XDATA, add(CFA_XSP16, literal(-3)))
        CFI DPL0 load(1, XDATA, add(CFA_XSP16, literal(-2)))
        CFI DPH0 load(1, XDATA, add(CFA_XSP16, literal(-1)))
        CFI CFA_SP SP+0
        CFI CFA_XSP16 add(XSP16, 9)
        CFI Block cfiCond64 Using cfiCommon0
        CFI (cfiCond64) NoFunction
        CFI (cfiCond64) Conditional ??CrossCallReturnLabel_28
        CFI (cfiCond64) R6 load(1, XDATA, add(CFA_XSP16, literal(-10)))
        CFI (cfiCond64) VB load(1, XDATA, add(CFA_XSP16, literal(-9)))
        CFI (cfiCond64) V0 load(1, XDATA, add(CFA_XSP16, literal(-8)))
        CFI (cfiCond64) V1 load(1, XDATA, add(CFA_XSP16, literal(-7)))
        CFI (cfiCond64) R7 load(1, XDATA, add(CFA_XSP16, literal(-6)))
        CFI (cfiCond64) ?RET_LOW load(1, XDATA, add(CFA_XSP16, literal(-5)))
        CFI (cfiCond64) ?RET_HIGH load(1, XDATA, add(CFA_XSP16, literal(-4)))
        CFI (cfiCond64) ?BRET_EXT load(1, XDATA, add(CFA_XSP16, literal(-3)))
        CFI (cfiCond64) DPL0 load(1, XDATA, add(CFA_XSP16, literal(-2)))
        CFI (cfiCond64) DPH0 load(1, XDATA, add(CFA_XSP16, literal(-1)))
        CFI (cfiCond64) CFA_SP SP+0
        CFI (cfiCond64) CFA_XSP16 add(XSP16, 10)
        CFI Block cfiPicker65 Using cfiCommon1
        CFI (cfiPicker65) NoFunction
        CFI (cfiPicker65) Picker
        LCALL   ??I2C_Start_1?relay
        ; Setup parameters for call to function WriteI2CByte_1
        ; Setup parameters for call to function WriteI2CByte_1
        MOV     R1,#-0x59
        LCALL   ??WriteI2CByte_1?relay
        RET
        CFI EndBlock cfiCond63
        CFI EndBlock cfiCond64
        CFI EndBlock cfiPicker65
//  277 

        RSEG BANKED_CODE:CODE:NOROOT(0)
//  278 void displayXYZ(INT8U *pData){
displayXYZ:
        CFI Block cfiBlock66 Using cfiCommon0
        CFI Function displayXYZ
        FUNCALL displayXYZ, HalLcdWriteStringValue
        LOCFRAME ISTACK, 0, STACK
        LOCFRAME PSTACK, 0, STACK
        LOCFRAME XSTACK, 17, STACK
        LOCFRAME IOVERLAY, 0, STATIC
        LOCFRAME DOVERLAY, 0, STATIC
        ARGFRAME ISTACK, 0, STACK
        ARGFRAME PSTACK, 0, STACK
        ARGFRAME XSTACK, 17, STACK
        ARGFRAME IOVERLAY, 0, STATIC
        ARGFRAME DOVERLAY, 0, STATIC
        FUNCALL displayXYZ, HalLcdWriteStringValue
        LOCFRAME ISTACK, 0, STACK
        LOCFRAME PSTACK, 0, STACK
        LOCFRAME XSTACK, 17, STACK
        LOCFRAME IOVERLAY, 0, STATIC
        LOCFRAME DOVERLAY, 0, STATIC
        ARGFRAME ISTACK, 0, STACK
        ARGFRAME PSTACK, 0, STACK
        ARGFRAME XSTACK, 17, STACK
        ARGFRAME IOVERLAY, 0, STATIC
        ARGFRAME DOVERLAY, 0, STATIC
        FUNCALL displayXYZ, HalLcdWriteStringValue
        LOCFRAME ISTACK, 0, STACK
        LOCFRAME PSTACK, 0, STACK
        LOCFRAME XSTACK, 17, STACK
        LOCFRAME IOVERLAY, 0, STATIC
        LOCFRAME DOVERLAY, 0, STATIC
        ARGFRAME ISTACK, 0, STACK
        ARGFRAME PSTACK, 0, STACK
        ARGFRAME XSTACK, 17, STACK
        ARGFRAME IOVERLAY, 0, STATIC
        ARGFRAME DOVERLAY, 0, STATIC
        FUNCALL displayXYZ, HalLcdWriteStringValue
        LOCFRAME ISTACK, 0, STACK
        LOCFRAME PSTACK, 0, STACK
        LOCFRAME XSTACK, 17, STACK
        LOCFRAME IOVERLAY, 0, STATIC
        LOCFRAME DOVERLAY, 0, STATIC
        ARGFRAME ISTACK, 0, STACK
        ARGFRAME PSTACK, 0, STACK
        ARGFRAME XSTACK, 17, STACK
        ARGFRAME IOVERLAY, 0, STATIC
        ARGFRAME DOVERLAY, 0, STATIC
        FUNCALL displayXYZ, HalLcdWriteStringValue
        LOCFRAME ISTACK, 0, STACK
        LOCFRAME PSTACK, 0, STACK
        LOCFRAME XSTACK, 17, STACK
        LOCFRAME IOVERLAY, 0, STATIC
        LOCFRAME DOVERLAY, 0, STATIC
        ARGFRAME ISTACK, 0, STACK
        ARGFRAME PSTACK, 0, STACK
        ARGFRAME XSTACK, 17, STACK
        ARGFRAME IOVERLAY, 0, STATIC
        ARGFRAME DOVERLAY, 0, STATIC
        FUNCALL displayXYZ, HalLcdWriteStringValue
        LOCFRAME ISTACK, 0, STACK
        LOCFRAME PSTACK, 0, STACK
        LOCFRAME XSTACK, 17, STACK
        LOCFRAME IOVERLAY, 0, STATIC
        LOCFRAME DOVERLAY, 0, STATIC
        ARGFRAME ISTACK, 0, STACK
        ARGFRAME PSTACK, 0, STACK
        ARGFRAME XSTACK, 17, STACK
        ARGFRAME IOVERLAY, 0, STATIC
        ARGFRAME DOVERLAY, 0, STATIC
        MOV     A,#-0x10
        LCALL   ?BANKED_ENTER_XDATA
        CFI DPH0 load(1, XDATA, add(CFA_XSP16, literal(-1)))
        CFI DPL0 load(1, XDATA, add(CFA_XSP16, literal(-2)))
        CFI ?BRET_EXT load(1, XDATA, add(CFA_XSP16, literal(-3)))
        CFI ?RET_HIGH load(1, XDATA, add(CFA_XSP16, literal(-4)))
        CFI ?RET_LOW load(1, XDATA, add(CFA_XSP16, literal(-5)))
        CFI R7 load(1, XDATA, add(CFA_XSP16, literal(-6)))
        CFI V7 load(1, XDATA, add(CFA_XSP16, literal(-7)))
        CFI V6 load(1, XDATA, add(CFA_XSP16, literal(-8)))
        CFI V5 load(1, XDATA, add(CFA_XSP16, literal(-9)))
        CFI V4 load(1, XDATA, add(CFA_XSP16, literal(-10)))
        CFI V3 load(1, XDATA, add(CFA_XSP16, literal(-11)))
        CFI V2 load(1, XDATA, add(CFA_XSP16, literal(-12)))
        CFI V1 load(1, XDATA, add(CFA_XSP16, literal(-13)))
        CFI V0 load(1, XDATA, add(CFA_XSP16, literal(-14)))
        CFI VB load(1, XDATA, add(CFA_XSP16, literal(-15)))
        CFI R6 load(1, XDATA, add(CFA_XSP16, literal(-16)))
        CFI CFA_SP SP+0
        CFI CFA_XSP16 add(XSP16, 16)
        ; Saved register size: 16
        ; Auto size: 0
        MOV     A,R2
        MOV     R6,A
        MOV     A,R3
        MOV     R7,A
//  279     int  dis_data;
//  280     uint16 temp;
//  281     dis_data=(pData[1]<<8)+pData[0];
        MOV     DPL,R6
        MOV     DPH,R7
        LCALL   ??Subroutine5_0 & 0xFFFF
??CrossCallReturnLabel_17:
        LCALL   ??Subroutine0_0 & 0xFFFF
//  282     temp=(uint16)((float)dis_data*3.9);  //计算数据和显示,查考ADXL345快速入门第4页
??CrossCallReturnLabel_2:
        LCALL   ?L_TO_FLT
        MOV     DPTR,#__Constant_4079999a
        MOV     R0,#?V0 + 0
        LCALL   ?L_MOV_X
        MOV     R0,#?V0 + 4
        MOV     R1,#?V0 + 0
        LCALL   ?FLT_MUL
        MOV     R0,#?V0 + 4
        LCALL   ?FLT_TO_L
        LCALL   ?Subroutine2 & 0xFFFF
//  283     if(dis_data<0){
??CrossCallReturnLabel_8:
        MOV     ?V0 + 0,#0x0
        MOV     R0,#?V0 + 0
        JNC     ??displayXYZ_0
//  284         dis_data=-dis_data;
//  285         HalLcdWriteStringValue("X: -",temp,10,0);
        ; Setup parameters for call to function HalLcdWriteStringValue
        LCALL   ?PUSH_XSTACK_I_ONE
        CFI CFA_XSP16 add(XSP16, 17)
        MOV     R1,#0xa
        MOV     R2,#(`?<Constant "X: -">` & 0xff)
        MOV     R3,#((`?<Constant "X: -">` >> 8) & 0xff)
        SJMP    ??displayXYZ_1
        CFI CFA_XSP16 add(XSP16, 16)
//  286     }
//  287     else
//  288     {
//  289         HalLcdWriteStringValue("X:  ",temp,10,0);
??displayXYZ_0:
        ; Setup parameters for call to function HalLcdWriteStringValue
        LCALL   ?PUSH_XSTACK_I_ONE
        CFI CFA_XSP16 add(XSP16, 17)
        MOV     R1,#0xa
        MOV     R2,#(`?<Constant "X:  ">` & 0xff)
        MOV     R3,#((`?<Constant "X:  ">` >> 8) & 0xff)
??displayXYZ_1:
        LCALL   ??HalLcdWriteStringValue?relay
        MOV     A,#0x1
        LCALL   ?DEALLOC_XSTACK8
        CFI CFA_XSP16 add(XSP16, 16)
//  290     }
//  291     dis_data=(pData[3]<<8)+pData[2];  //合成数据
        MOV     DPL,R6
        MOV     DPH,R7
        LCALL   ?Subroutine5 & 0xFFFF
??CrossCallReturnLabel_18:
        LCALL   ?Subroutine0 & 0xFFFF
//  292     temp=(uint16)((float)dis_data*3.9);  //计算数据和显示,查考ADXL345快速入门第4页
??CrossCallReturnLabel_0:
        LCALL   ?L_TO_FLT
        MOV     DPTR,#__Constant_4079999a
        MOV     R0,#?V0 + 0
        LCALL   ?L_MOV_X
        MOV     R0,#?V0 + 4
        MOV     R1,#?V0 + 0
        LCALL   ?FLT_MUL
        MOV     R0,#?V0 + 4
        LCALL   ?FLT_TO_L
        LCALL   ?Subroutine2 & 0xFFFF
//  293     if(dis_data<0){
??CrossCallReturnLabel_9:
        MOV     ?V0 + 0,#0x1
        MOV     R0,#?V0 + 0
        JNC     ??displayXYZ_2
//  294         dis_data=-dis_data;
//  295         HalLcdWriteStringValue("Y: -",temp,10,1);
        ; Setup parameters for call to function HalLcdWriteStringValue
        LCALL   ?PUSH_XSTACK_I_ONE
        CFI CFA_XSP16 add(XSP16, 17)
        MOV     R1,#0xa
        MOV     R2,#(`?<Constant "Y: -">` & 0xff)
        MOV     R3,#((`?<Constant "Y: -">` >> 8) & 0xff)
        SJMP    ??displayXYZ_3
        CFI CFA_XSP16 add(XSP16, 16)
//  296     }
//  297     else
//  298     {
//  299         HalLcdWriteStringValue("Y:  ",temp,10,1);
??displayXYZ_2:
        ; Setup parameters for call to function HalLcdWriteStringValue
        LCALL   ?PUSH_XSTACK_I_ONE
        CFI CFA_XSP16 add(XSP16, 17)
        MOV     R1,#0xa
        MOV     R2,#(`?<Constant "Y:  ">` & 0xff)
        MOV     R3,#((`?<Constant "Y:  ">` >> 8) & 0xff)
??displayXYZ_3:
        LCALL   ??HalLcdWriteStringValue?relay
        MOV     A,#0x1
        LCALL   ?DEALLOC_XSTACK8
        CFI CFA_XSP16 add(XSP16, 16)
//  300     }
//  301     dis_data=(pData[5]<<8)+pData[4];    //合成数据
        MOV     DPL,R6
        MOV     DPH,R7
        INC     DPTR
        INC     DPTR
        LCALL   ?Subroutine5 & 0xFFFF
??CrossCallReturnLabel_19:
        INC     DPTR
        INC     DPTR
        LCALL   ?Subroutine0 & 0xFFFF
//  302     temp=(uint16)((float)dis_data*3.9);  //计算数据和显示,查考ADXL345快速入门第4页
??CrossCallReturnLabel_1:
        LCALL   ?L_TO_FLT
        MOV     DPTR,#__Constant_4079999a
        MOV     R0,#?V0 + 0
        LCALL   ?L_MOV_X
        MOV     R0,#?V0 + 4
        MOV     R1,#?V0 + 0
        LCALL   ?FLT_MUL
        MOV     R0,#?V0 + 4
        LCALL   ?FLT_TO_L
        LCALL   ?Subroutine2 & 0xFFFF
//  303     if(dis_data<0){
??CrossCallReturnLabel_10:
        MOV     ?V0 + 0,#0x2
        MOV     R0,#?V0 + 0
        JNC     ??displayXYZ_4
//  304         dis_data=-dis_data;
//  305         HalLcdWriteStringValue("Z: -",temp,10,2);
        ; Setup parameters for call to function HalLcdWriteStringValue
        LCALL   ?PUSH_XSTACK_I_ONE
        CFI CFA_XSP16 add(XSP16, 17)
        MOV     R1,#0xa
        MOV     R2,#(`?<Constant "Z: -">` & 0xff)
        MOV     R3,#((`?<Constant "Z: -">` >> 8) & 0xff)
        SJMP    ??displayXYZ_5
        CFI CFA_XSP16 add(XSP16, 16)
//  306     }
//  307     else
//  308     {
//  309         HalLcdWriteStringValue("Z:  ",temp,10,2);
??displayXYZ_4:
        ; Setup parameters for call to function HalLcdWriteStringValue
        LCALL   ?PUSH_XSTACK_I_ONE
        CFI CFA_XSP16 add(XSP16, 17)
        MOV     R1,#0xa
        MOV     R2,#(`?<Constant "Z:  ">` & 0xff)
        MOV     R3,#((`?<Constant "Z:  ">` >> 8) & 0xff)
??displayXYZ_5:
        LCALL   ??HalLcdWriteStringValue?relay
        MOV     A,#0x1
        LJMP    ?Subroutine16 & 0xFFFF
        CFI EndBlock cfiBlock66
//  310     }
//  311 }

        RSEG BANKED_CODE:CODE:NOROOT(0)
?Subroutine5:
        CFI Block cfiCond67 Using cfiCommon0
        CFI NoFunction
        CFI Conditional ??CrossCallReturnLabel_18
        CFI R6 load(1, XDATA, add(CFA_XSP16, literal(-16)))
        CFI VB load(1, XDATA, add(CFA_XSP16, literal(-15)))
        CFI V0 load(1, XDATA, add(CFA_XSP16, literal(-14)))
        CFI V1 load(1, XDATA, add(CFA_XSP16, literal(-13)))
        CFI V2 load(1, XDATA, add(CFA_XSP16, literal(-12)))
        CFI V3 load(1, XDATA, add(CFA_XSP16, literal(-11)))
        CFI V4 load(1, XDATA, add(CFA_XSP16, literal(-10)))
        CFI V5 load(1, XDATA, add(CFA_XSP16, literal(-9)))
        CFI V6 load(1, XDATA, add(CFA_XSP16, literal(-8)))
        CFI V7 load(1, XDATA, add(CFA_XSP16, literal(-7)))
        CFI R7 load(1, XDATA, add(CFA_XSP16, literal(-6)))
        CFI ?RET_LOW load(1, XDATA, add(CFA_XSP16, literal(-5)))
        CFI ?RET_HIGH load(1, XDATA, add(CFA_XSP16, literal(-4)))
        CFI ?BRET_EXT load(1, XDATA, add(CFA_XSP16, literal(-3)))
        CFI DPL0 load(1, XDATA, add(CFA_XSP16, literal(-2)))
        CFI DPH0 load(1, XDATA, add(CFA_XSP16, literal(-1)))
        CFI CFA_SP SP+0
        CFI CFA_XSP16 add(XSP16, 16)
        CFI Block cfiCond68 Using cfiCommon0
        CFI (cfiCond68) NoFunction
        CFI (cfiCond68) Conditional ??CrossCallReturnLabel_19
        CFI (cfiCond68) R6 load(1, XDATA, add(CFA_XSP16, literal(-16)))
        CFI (cfiCond68) VB load(1, XDATA, add(CFA_XSP16, literal(-15)))
        CFI (cfiCond68) V0 load(1, XDATA, add(CFA_XSP16, literal(-14)))
        CFI (cfiCond68) V1 load(1, XDATA, add(CFA_XSP16, literal(-13)))
        CFI (cfiCond68) V2 load(1, XDATA, add(CFA_XSP16, literal(-12)))
        CFI (cfiCond68) V3 load(1, XDATA, add(CFA_XSP16, literal(-11)))
        CFI (cfiCond68) V4 load(1, XDATA, add(CFA_XSP16, literal(-10)))
        CFI (cfiCond68) V5 load(1, XDATA, add(CFA_XSP16, literal(-9)))
        CFI (cfiCond68) V6 load(1, XDATA, add(CFA_XSP16, literal(-8)))
        CFI (cfiCond68) V7 load(1, XDATA, add(CFA_XSP16, literal(-7)))
        CFI (cfiCond68) R7 load(1, XDATA, add(CFA_XSP16, literal(-6)))
        CFI (cfiCond68) ?RET_LOW load(1, XDATA, add(CFA_XSP16, literal(-5)))
        CFI (cfiCond68) ?RET_HIGH load(1, XDATA, add(CFA_XSP16, literal(-4)))
        CFI (cfiCond68) ?BRET_EXT load(1, XDATA, add(CFA_XSP16, literal(-3)))
        CFI (cfiCond68) DPL0 load(1, XDATA, add(CFA_XSP16, literal(-2)))
        CFI (cfiCond68) DPH0 load(1, XDATA, add(CFA_XSP16, literal(-1)))
        CFI (cfiCond68) CFA_SP SP+0
        CFI (cfiCond68) CFA_XSP16 add(XSP16, 16)
        CFI Block cfiPicker69 Using cfiCommon1
        CFI (cfiPicker69) NoFunction
        CFI (cfiPicker69) Picker
        INC     DPTR
        INC     DPTR
        CFI Block cfiCond70 Using cfiCommon0
        CFI (cfiCond70) NoFunction
        CFI (cfiCond70) Conditional ??CrossCallReturnLabel_17
        CFI (cfiCond70) R6 load(1, XDATA, add(CFA_XSP16, literal(-16)))
        CFI (cfiCond70) VB load(1, XDATA, add(CFA_XSP16, literal(-15)))
        CFI (cfiCond70) V0 load(1, XDATA, add(CFA_XSP16, literal(-14)))
        CFI (cfiCond70) V1 load(1, XDATA, add(CFA_XSP16, literal(-13)))
        CFI (cfiCond70) V2 load(1, XDATA, add(CFA_XSP16, literal(-12)))
        CFI (cfiCond70) V3 load(1, XDATA, add(CFA_XSP16, literal(-11)))
        CFI (cfiCond70) V4 load(1, XDATA, add(CFA_XSP16, literal(-10)))
        CFI (cfiCond70) V5 load(1, XDATA, add(CFA_XSP16, literal(-9)))
        CFI (cfiCond70) V6 load(1, XDATA, add(CFA_XSP16, literal(-8)))
        CFI (cfiCond70) V7 load(1, XDATA, add(CFA_XSP16, literal(-7)))
        CFI (cfiCond70) R7 load(1, XDATA, add(CFA_XSP16, literal(-6)))
        CFI (cfiCond70) ?RET_LOW load(1, XDATA, add(CFA_XSP16, literal(-5)))
        CFI (cfiCond70) ?RET_HIGH load(1, XDATA, add(CFA_XSP16, literal(-4)))
        CFI (cfiCond70) ?BRET_EXT load(1, XDATA, add(CFA_XSP16, literal(-3)))
        CFI (cfiCond70) DPL0 load(1, XDATA, add(CFA_XSP16, literal(-2)))
        CFI (cfiCond70) DPH0 load(1, XDATA, add(CFA_XSP16, literal(-1)))
        CFI (cfiCond70) CFA_SP SP+0
        CFI (cfiCond70) CFA_XSP16 add(XSP16, 16)
??Subroutine5_0:
        INC     DPTR
        MOVX    A,@DPTR
        MOV     R1,A
        MOV     DPL,R6
        MOV     DPH,R7
        RET
        CFI EndBlock cfiCond67
        CFI EndBlock cfiCond68
        CFI EndBlock cfiPicker69
        CFI EndBlock cfiCond70

        RSEG BANKED_CODE:CODE:NOROOT(0)
?Subroutine2:
        CFI Block cfiCond71 Using cfiCommon0
        CFI NoFunction
        CFI Conditional ??CrossCallReturnLabel_8
        CFI R6 load(1, XDATA, add(CFA_XSP16, literal(-16)))
        CFI VB load(1, XDATA, add(CFA_XSP16, literal(-15)))
        CFI V0 load(1, XDATA, add(CFA_XSP16, literal(-14)))
        CFI V1 load(1, XDATA, add(CFA_XSP16, literal(-13)))
        CFI V2 load(1, XDATA, add(CFA_XSP16, literal(-12)))
        CFI V3 load(1, XDATA, add(CFA_XSP16, literal(-11)))
        CFI V4 load(1, XDATA, add(CFA_XSP16, literal(-10)))
        CFI V5 load(1, XDATA, add(CFA_XSP16, literal(-9)))
        CFI V6 load(1, XDATA, add(CFA_XSP16, literal(-8)))
        CFI V7 load(1, XDATA, add(CFA_XSP16, literal(-7)))
        CFI R7 load(1, XDATA, add(CFA_XSP16, literal(-6)))
        CFI ?RET_LOW load(1, XDATA, add(CFA_XSP16, literal(-5)))
        CFI ?RET_HIGH load(1, XDATA, add(CFA_XSP16, literal(-4)))
        CFI ?BRET_EXT load(1, XDATA, add(CFA_XSP16, literal(-3)))
        CFI DPL0 load(1, XDATA, add(CFA_XSP16, literal(-2)))
        CFI DPH0 load(1, XDATA, add(CFA_XSP16, literal(-1)))
        CFI CFA_SP SP+0
        CFI CFA_XSP16 add(XSP16, 16)
        CFI Block cfiCond72 Using cfiCommon0
        CFI (cfiCond72) NoFunction
        CFI (cfiCond72) Conditional ??CrossCallReturnLabel_9
        CFI (cfiCond72) R6 load(1, XDATA, add(CFA_XSP16, literal(-16)))
        CFI (cfiCond72) VB load(1, XDATA, add(CFA_XSP16, literal(-15)))
        CFI (cfiCond72) V0 load(1, XDATA, add(CFA_XSP16, literal(-14)))
        CFI (cfiCond72) V1 load(1, XDATA, add(CFA_XSP16, literal(-13)))
        CFI (cfiCond72) V2 load(1, XDATA, add(CFA_XSP16, literal(-12)))
        CFI (cfiCond72) V3 load(1, XDATA, add(CFA_XSP16, literal(-11)))
        CFI (cfiCond72) V4 load(1, XDATA, add(CFA_XSP16, literal(-10)))
        CFI (cfiCond72) V5 load(1, XDATA, add(CFA_XSP16, literal(-9)))
        CFI (cfiCond72) V6 load(1, XDATA, add(CFA_XSP16, literal(-8)))
        CFI (cfiCond72) V7 load(1, XDATA, add(CFA_XSP16, literal(-7)))
        CFI (cfiCond72) R7 load(1, XDATA, add(CFA_XSP16, literal(-6)))
        CFI (cfiCond72) ?RET_LOW load(1, XDATA, add(CFA_XSP16, literal(-5)))
        CFI (cfiCond72) ?RET_HIGH load(1, XDATA, add(CFA_XSP16, literal(-4)))
        CFI (cfiCond72) ?BRET_EXT load(1, XDATA, add(CFA_XSP16, literal(-3)))
        CFI (cfiCond72) DPL0 load(1, XDATA, add(CFA_XSP16, literal(-2)))
        CFI (cfiCond72) DPH0 load(1, XDATA, add(CFA_XSP16, literal(-1)))
        CFI (cfiCond72) CFA_SP SP+0
        CFI (cfiCond72) CFA_XSP16 add(XSP16, 16)
        CFI Block cfiCond73 Using cfiCommon0
        CFI (cfiCond73) NoFunction
        CFI (cfiCond73) Conditional ??CrossCallReturnLabel_10
        CFI (cfiCond73) R6 load(1, XDATA, add(CFA_XSP16, literal(-16)))
        CFI (cfiCond73) VB load(1, XDATA, add(CFA_XSP16, literal(-15)))
        CFI (cfiCond73) V0 load(1, XDATA, add(CFA_XSP16, literal(-14)))
        CFI (cfiCond73) V1 load(1, XDATA, add(CFA_XSP16, literal(-13)))
        CFI (cfiCond73) V2 load(1, XDATA, add(CFA_XSP16, literal(-12)))
        CFI (cfiCond73) V3 load(1, XDATA, add(CFA_XSP16, literal(-11)))
        CFI (cfiCond73) V4 load(1, XDATA, add(CFA_XSP16, literal(-10)))
        CFI (cfiCond73) V5 load(1, XDATA, add(CFA_XSP16, literal(-9)))
        CFI (cfiCond73) V6 load(1, XDATA, add(CFA_XSP16, literal(-8)))
        CFI (cfiCond73) V7 load(1, XDATA, add(CFA_XSP16, literal(-7)))
        CFI (cfiCond73) R7 load(1, XDATA, add(CFA_XSP16, literal(-6)))
        CFI (cfiCond73) ?RET_LOW load(1, XDATA, add(CFA_XSP16, literal(-5)))
        CFI (cfiCond73) ?RET_HIGH load(1, XDATA, add(CFA_XSP16, literal(-4)))
        CFI (cfiCond73) ?BRET_EXT load(1, XDATA, add(CFA_XSP16, literal(-3)))
        CFI (cfiCond73) DPL0 load(1, XDATA, add(CFA_XSP16, literal(-2)))
        CFI (cfiCond73) DPH0 load(1, XDATA, add(CFA_XSP16, literal(-1)))
        CFI (cfiCond73) CFA_SP SP+0
        CFI (cfiCond73) CFA_XSP16 add(XSP16, 16)
        CFI Block cfiPicker74 Using cfiCommon1
        CFI (cfiPicker74) NoFunction
        CFI (cfiPicker74) Picker
        MOV     R4,?V0 + 4
        MOV     R5,?V0 + 5
        CLR     C
        MOV     A,R3
        CFI Block cfiCond75 Using cfiCommon0
        CFI (cfiCond75) NoFunction
        CFI (cfiCond75) Conditional ??CrossCallReturnLabel_11
        CFI (cfiCond75) R6 load(1, XDATA, add(CFA_XSP16, literal(-16)))
        CFI (cfiCond75) VB load(1, XDATA, add(CFA_XSP16, literal(-15)))
        CFI (cfiCond75) V0 load(1, XDATA, add(CFA_XSP16, literal(-14)))
        CFI (cfiCond75) V1 load(1, XDATA, add(CFA_XSP16, literal(-13)))
        CFI (cfiCond75) V2 load(1, XDATA, add(CFA_XSP16, literal(-12)))
        CFI (cfiCond75) V3 load(1, XDATA, add(CFA_XSP16, literal(-11)))
        CFI (cfiCond75) V4 load(1, XDATA, add(CFA_XSP16, literal(-10)))
        CFI (cfiCond75) V5 load(1, XDATA, add(CFA_XSP16, literal(-9)))
        CFI (cfiCond75) V6 load(1, XDATA, add(CFA_XSP16, literal(-8)))
        CFI (cfiCond75) V7 load(1, XDATA, add(CFA_XSP16, literal(-7)))
        CFI (cfiCond75) R7 load(1, XDATA, add(CFA_XSP16, literal(-6)))
        CFI (cfiCond75) ?RET_LOW load(1, XDATA, add(CFA_XSP16, literal(-5)))
        CFI (cfiCond75) ?RET_HIGH load(1, XDATA, add(CFA_XSP16, literal(-4)))
        CFI (cfiCond75) ?BRET_EXT load(1, XDATA, add(CFA_XSP16, literal(-3)))
        CFI (cfiCond75) DPL0 load(1, XDATA, add(CFA_XSP16, literal(-2)))
        CFI (cfiCond75) DPH0 load(1, XDATA, add(CFA_XSP16, literal(-1)))
        CFI (cfiCond75) CFA_SP SP+0
        CFI (cfiCond75) CFA_XSP16 add(XSP16, 22)
        CFI Block cfiCond76 Using cfiCommon0
        CFI (cfiCond76) NoFunction
        CFI (cfiCond76) Conditional ??CrossCallReturnLabel_12
        CFI (cfiCond76) R6 load(1, XDATA, add(CFA_XSP16, literal(-16)))
        CFI (cfiCond76) VB load(1, XDATA, add(CFA_XSP16, literal(-15)))
        CFI (cfiCond76) V0 load(1, XDATA, add(CFA_XSP16, literal(-14)))
        CFI (cfiCond76) V1 load(1, XDATA, add(CFA_XSP16, literal(-13)))
        CFI (cfiCond76) V2 load(1, XDATA, add(CFA_XSP16, literal(-12)))
        CFI (cfiCond76) V3 load(1, XDATA, add(CFA_XSP16, literal(-11)))
        CFI (cfiCond76) V4 load(1, XDATA, add(CFA_XSP16, literal(-10)))
        CFI (cfiCond76) V5 load(1, XDATA, add(CFA_XSP16, literal(-9)))
        CFI (cfiCond76) V6 load(1, XDATA, add(CFA_XSP16, literal(-8)))
        CFI (cfiCond76) V7 load(1, XDATA, add(CFA_XSP16, literal(-7)))
        CFI (cfiCond76) R7 load(1, XDATA, add(CFA_XSP16, literal(-6)))
        CFI (cfiCond76) ?RET_LOW load(1, XDATA, add(CFA_XSP16, literal(-5)))
        CFI (cfiCond76) ?RET_HIGH load(1, XDATA, add(CFA_XSP16, literal(-4)))
        CFI (cfiCond76) ?BRET_EXT load(1, XDATA, add(CFA_XSP16, literal(-3)))
        CFI (cfiCond76) DPL0 load(1, XDATA, add(CFA_XSP16, literal(-2)))
        CFI (cfiCond76) DPH0 load(1, XDATA, add(CFA_XSP16, literal(-1)))
        CFI (cfiCond76) CFA_SP SP+0
        CFI (cfiCond76) CFA_XSP16 add(XSP16, 22)
??Subroutine2_0:
        SUBB    A,#0x0
        MOV     C,0xD0 /* PSW */.2
        XRL     A,PSW
        RLC     A
        RET
        CFI EndBlock cfiCond71
        CFI EndBlock cfiCond72
        CFI EndBlock cfiCond73
        CFI EndBlock cfiPicker74
        CFI EndBlock cfiCond75
        CFI EndBlock cfiCond76

        RSEG BANKED_CODE:CODE:NOROOT(0)
?Subroutine0:
        CFI Block cfiCond77 Using cfiCommon0
        CFI NoFunction
        CFI Conditional ??CrossCallReturnLabel_0
        CFI R6 load(1, XDATA, add(CFA_XSP16, literal(-16)))
        CFI VB load(1, XDATA, add(CFA_XSP16, literal(-15)))
        CFI V0 load(1, XDATA, add(CFA_XSP16, literal(-14)))
        CFI V1 load(1, XDATA, add(CFA_XSP16, literal(-13)))
        CFI V2 load(1, XDATA, add(CFA_XSP16, literal(-12)))
        CFI V3 load(1, XDATA, add(CFA_XSP16, literal(-11)))
        CFI V4 load(1, XDATA, add(CFA_XSP16, literal(-10)))
        CFI V5 load(1, XDATA, add(CFA_XSP16, literal(-9)))
        CFI V6 load(1, XDATA, add(CFA_XSP16, literal(-8)))
        CFI V7 load(1, XDATA, add(CFA_XSP16, literal(-7)))
        CFI R7 load(1, XDATA, add(CFA_XSP16, literal(-6)))
        CFI ?RET_LOW load(1, XDATA, add(CFA_XSP16, literal(-5)))
        CFI ?RET_HIGH load(1, XDATA, add(CFA_XSP16, literal(-4)))
        CFI ?BRET_EXT load(1, XDATA, add(CFA_XSP16, literal(-3)))
        CFI DPL0 load(1, XDATA, add(CFA_XSP16, literal(-2)))
        CFI DPH0 load(1, XDATA, add(CFA_XSP16, literal(-1)))
        CFI CFA_SP SP+0
        CFI CFA_XSP16 add(XSP16, 16)
        CFI Block cfiCond78 Using cfiCommon0
        CFI (cfiCond78) NoFunction
        CFI (cfiCond78) Conditional ??CrossCallReturnLabel_1
        CFI (cfiCond78) R6 load(1, XDATA, add(CFA_XSP16, literal(-16)))
        CFI (cfiCond78) VB load(1, XDATA, add(CFA_XSP16, literal(-15)))
        CFI (cfiCond78) V0 load(1, XDATA, add(CFA_XSP16, literal(-14)))
        CFI (cfiCond78) V1 load(1, XDATA, add(CFA_XSP16, literal(-13)))
        CFI (cfiCond78) V2 load(1, XDATA, add(CFA_XSP16, literal(-12)))
        CFI (cfiCond78) V3 load(1, XDATA, add(CFA_XSP16, literal(-11)))
        CFI (cfiCond78) V4 load(1, XDATA, add(CFA_XSP16, literal(-10)))
        CFI (cfiCond78) V5 load(1, XDATA, add(CFA_XSP16, literal(-9)))
        CFI (cfiCond78) V6 load(1, XDATA, add(CFA_XSP16, literal(-8)))
        CFI (cfiCond78) V7 load(1, XDATA, add(CFA_XSP16, literal(-7)))
        CFI (cfiCond78) R7 load(1, XDATA, add(CFA_XSP16, literal(-6)))
        CFI (cfiCond78) ?RET_LOW load(1, XDATA, add(CFA_XSP16, literal(-5)))
        CFI (cfiCond78) ?RET_HIGH load(1, XDATA, add(CFA_XSP16, literal(-4)))
        CFI (cfiCond78) ?BRET_EXT load(1, XDATA, add(CFA_XSP16, literal(-3)))
        CFI (cfiCond78) DPL0 load(1, XDATA, add(CFA_XSP16, literal(-2)))
        CFI (cfiCond78) DPH0 load(1, XDATA, add(CFA_XSP16, literal(-1)))
        CFI (cfiCond78) CFA_SP SP+0
        CFI (cfiCond78) CFA_XSP16 add(XSP16, 16)
        CFI Block cfiPicker79 Using cfiCommon1
        CFI (cfiPicker79) NoFunction
        CFI (cfiPicker79) Picker
        INC     DPTR
        INC     DPTR
        CFI Block cfiCond80 Using cfiCommon0
        CFI (cfiCond80) NoFunction
        CFI (cfiCond80) Conditional ??CrossCallReturnLabel_2
        CFI (cfiCond80) R6 load(1, XDATA, add(CFA_XSP16, literal(-16)))
        CFI (cfiCond80) VB load(1, XDATA, add(CFA_XSP16, literal(-15)))
        CFI (cfiCond80) V0 load(1, XDATA, add(CFA_XSP16, literal(-14)))
        CFI (cfiCond80) V1 load(1, XDATA, add(CFA_XSP16, literal(-13)))
        CFI (cfiCond80) V2 load(1, XDATA, add(CFA_XSP16, literal(-12)))
        CFI (cfiCond80) V3 load(1, XDATA, add(CFA_XSP16, literal(-11)))
        CFI (cfiCond80) V4 load(1, XDATA, add(CFA_XSP16, literal(-10)))
        CFI (cfiCond80) V5 load(1, XDATA, add(CFA_XSP16, literal(-9)))
        CFI (cfiCond80) V6 load(1, XDATA, add(CFA_XSP16, literal(-8)))
        CFI (cfiCond80) V7 load(1, XDATA, add(CFA_XSP16, literal(-7)))
        CFI (cfiCond80) R7 load(1, XDATA, add(CFA_XSP16, literal(-6)))
        CFI (cfiCond80) ?RET_LOW load(1, XDATA, add(CFA_XSP16, literal(-5)))
        CFI (cfiCond80) ?RET_HIGH load(1, XDATA, add(CFA_XSP16, literal(-4)))
        CFI (cfiCond80) ?BRET_EXT load(1, XDATA, add(CFA_XSP16, literal(-3)))
        CFI (cfiCond80) DPL0 load(1, XDATA, add(CFA_XSP16, literal(-2)))
        CFI (cfiCond80) DPH0 load(1, XDATA, add(CFA_XSP16, literal(-1)))
        CFI (cfiCond80) CFA_SP SP+0
        CFI (cfiCond80) CFA_XSP16 add(XSP16, 16)
??Subroutine0_0:
        MOVX    A,@DPTR
        ADD     A,#0x0
        MOV     R2,A
        CLR     A
        ADDC    A,R1
        MOV     R3,A
        MOV     ?V0 + 4,R2
        MOV     ?V0 + 5,A
        RLC     A
        SUBB    A,0xE0 /* A   */
        MOV     ?V0 + 6,A
        MOV     ?V0 + 7,A
        MOV     R0,#?V0 + 4
        RET
        CFI EndBlock cfiCond77
        CFI EndBlock cfiCond78
        CFI EndBlock cfiPicker79
        CFI EndBlock cfiCond80

        RSEG XDATA_ID:CODE:NOROOT(0)
        DATA
`?<Initializer for <Constant "X: -">>`:
        DB "X: -"

        RSEG XDATA_ID:CODE:NOROOT(0)
        DATA
`?<Initializer for <Constant "X:  ">>`:
        DB "X:  "

        RSEG XDATA_ID:CODE:NOROOT(0)
        DATA
`?<Initializer for <Constant "Y: -">>`:
        DB "Y: -"

        RSEG XDATA_ID:CODE:NOROOT(0)
        DATA
`?<Initializer for <Constant "Y:  ">>`:
        DB "Y:  "

        RSEG XDATA_ID:CODE:NOROOT(0)
        DATA
`?<Initializer for <Constant "Z: -">>`:
        DB "Z: -"

        RSEG XDATA_ID:CODE:NOROOT(0)
        DATA
`?<Initializer for <Constant "Z:  ">>`:
        DB "Z:  "

        RSEG XDATA_ID:CODE:NOROOT(0)
        DATA
`?<Initializer for __Constant_40000000>`:
        DD 40000000H

        RSEG XDATA_ID:CODE:NOROOT(0)
        DATA
`?<Initializer for __Constant_4048f5c3>`:
        DD 4048F5C3H

        RSEG XDATA_ID:CODE:NOROOT(0)
        DATA
`?<Initializer for __Constant_43340000>`:
        DD 43340000H

        RSEG XDATA_ID:CODE:NOROOT(0)
        DATA
`?<Initializer for __Constant_43c00001>`:
        DD 43C00001H

        RSEG XDATA_ID:CODE:NOROOT(0)
        DATA
`?<Initializer for __Constant_4079999a>`:
        DD 4079999AH

        RSEG BANK_RELAYS:CODE:REORDER:NOROOT(0)
??Delay?relay:
        LCALL   ?BDISPATCH
        DATA
        DC24    Delay

        RSEG BANK_RELAYS:CODE:REORDER:NOROOT(0)
??Delay_1u?relay:
        LCALL   ?BDISPATCH
        DATA
        DC24    Delay_1u

        RSEG BANK_RELAYS:CODE:REORDER:NOROOT(0)
??conversion?relay:
        LCALL   ?BDISPATCH
        DATA
        DC24    conversion

        RSEG BANK_RELAYS:CODE:REORDER:NOROOT(0)
??I2C_Start_1?relay:
        LCALL   ?BDISPATCH
        DATA
        DC24    I2C_Start_1

        RSEG BANK_RELAYS:CODE:REORDER:NOROOT(0)
??I2C_Stop_1?relay:
        LCALL   ?BDISPATCH
        DATA
        DC24    I2C_Stop_1

        RSEG BANK_RELAYS:CODE:REORDER:NOROOT(0)
??Sendack?relay:
        LCALL   ?BDISPATCH
        DATA
        DC24    Sendack

        RSEG BANK_RELAYS:CODE:REORDER:NOROOT(0)
??I2C_Check_ack?relay:
        LCALL   ?BDISPATCH
        DATA
        DC24    I2C_Check_ack

        RSEG BANK_RELAYS:CODE:REORDER:NOROOT(0)
??WriteI2CByte_1?relay:
        LCALL   ?BDISPATCH
        DATA
        DC24    WriteI2CByte_1

        RSEG BANK_RELAYS:CODE:REORDER:NOROOT(0)
??ReadI2CByte_1?relay:
        LCALL   ?BDISPATCH
        DATA
        DC24    ReadI2CByte_1

        RSEG BANK_RELAYS:CODE:REORDER:NOROOT(0)
??Single_Write_ADXL345?relay:
        LCALL   ?BDISPATCH
        DATA
        DC24    Single_Write_ADXL345

        RSEG BANK_RELAYS:CODE:REORDER:NOROOT(0)
??Single_Read_ADXL345?relay:
        LCALL   ?BDISPATCH
        DATA
        DC24    Single_Read_ADXL345

        RSEG BANK_RELAYS:CODE:REORDER:NOROOT(0)
??Init_ADXL345?relay:
        LCALL   ?BDISPATCH
        DATA
        DC24    Init_ADXL345

        RSEG BANK_RELAYS:CODE:REORDER:NOROOT(0)
??Multiple_Read_ADXL345?relay:
        LCALL   ?BDISPATCH
        DATA
        DC24    Multiple_Read_ADXL345

        RSEG BANK_RELAYS:CODE:REORDER:NOROOT(0)
??displayXYZ?relay:
        LCALL   ?BDISPATCH
        DATA
        DC24    displayXYZ

        RSEG XDATA_I:XDATA:NOROOT(0)
        DATA
`?<Constant "X: -">`:
        DS 5
        REQUIRE `?<Initializer for <Constant "X: -">>`
        REQUIRE __INIT_XDATA_I

        RSEG XDATA_I:XDATA:NOROOT(0)
        DATA
`?<Constant "X:  ">`:
        DS 5
        REQUIRE `?<Initializer for <Constant "X:  ">>`
        REQUIRE __INIT_XDATA_I

        RSEG XDATA_I:XDATA:NOROOT(0)
        DATA
`?<Constant "Y: -">`:
        DS 5
        REQUIRE `?<Initializer for <Constant "Y: -">>`
        REQUIRE __INIT_XDATA_I

        RSEG XDATA_I:XDATA:NOROOT(0)
        DATA
`?<Constant "Y:  ">`:
        DS 5
        REQUIRE `?<Initializer for <Constant "Y:  ">>`
        REQUIRE __INIT_XDATA_I

        RSEG XDATA_I:XDATA:NOROOT(0)
        DATA
`?<Constant "Z: -">`:
        DS 5
        REQUIRE `?<Initializer for <Constant "Z: -">>`
        REQUIRE __INIT_XDATA_I

        RSEG XDATA_I:XDATA:NOROOT(0)
        DATA
`?<Constant "Z:  ">`:
        DS 5
        REQUIRE `?<Initializer for <Constant "Z:  ">>`
        REQUIRE __INIT_XDATA_I

        RSEG XDATA_I:XDATA:NOROOT(0)
        DATA
__Constant_40000000:
        DS 4
        REQUIRE `?<Initializer for __Constant_40000000>`
        REQUIRE __INIT_XDATA_I

        RSEG XDATA_I:XDATA:NOROOT(0)
        DATA
__Constant_4048f5c3:
        DS 4
        REQUIRE `?<Initializer for __Constant_4048f5c3>`
        REQUIRE __INIT_XDATA_I

        RSEG XDATA_I:XDATA:NOROOT(0)
        DATA
__Constant_43340000:
        DS 4
        REQUIRE `?<Initializer for __Constant_43340000>`
        REQUIRE __INIT_XDATA_I

        RSEG XDATA_I:XDATA:NOROOT(0)
        DATA
__Constant_43c00001:
        DS 4
        REQUIRE `?<Initializer for __Constant_43c00001>`
        REQUIRE __INIT_XDATA_I

        RSEG XDATA_I:XDATA:NOROOT(0)
        DATA
__Constant_4079999a:
        DS 4
        REQUIRE `?<Initializer for __Constant_4079999a>`
        REQUIRE __INIT_XDATA_I

        END
// 
// 1 391 bytes in segment BANKED_CODE
//    84 bytes in segment BANK_RELAYS
//     2 bytes in segment SFR_AN
//    50 bytes in segment XDATA_I
//    50 bytes in segment XDATA_ID
//    25 bytes in segment XDATA_Z
// 
// 1 505 bytes of CODE  memory (+ 20 bytes shared)
//     0 bytes of DATA  memory (+  2 bytes shared)
//    55 bytes of XDATA memory (+ 20 bytes shared)
//
//Errors: none
//Warnings: none
