###############################################################################
#                                                                             #
# IAR 8051 C/C++ Compiler V7.30B/W32                    11/Mar/2013  16:29:55 #
# Copyright 2004-2007 IAR Systems. All rights reserved.                       #
#                                                                             #
#    Core               =  plain                                              #
#    Code model         =  banked                                             #
#    Data model         =  large                                              #
#    Calling convention =  xdata reentrant                                    #
#    Constant location  =  data                                               #
#    Dptr setup         =  1,16                                               #
#    Source file        =  C:\Texas Instruments\ZStack-1.4.3-1.2.1\Projects\z #
#                          stack\Samples\cc2430-zstack-adxl345\Source\AXD.c   #
#    Command line       =  -f "C:\Texas Instruments\ZStack-1.4.3-1.2.1\Projec #
#                          ts\zstack\Samples\cc2430-zstack-adxl345\CC2430DB\. #
#                          .\..\..\Tools\CC2430DB\f8wCoord.cfg" (-DCPU32MHZ   #
#                          -DFORCE_MAC_NEAR -DROOT=__near_func                #
#                          -DMAC_CFG_APP_PENDING_QUEUE=TRUE                   #
#                          -DZDO_COORDINATOR -DRTR_NWK -DBLINK_LEDS           #
#                          "-DCONST=const __code" -DGENERIC=__generic) -f     #
#                          "C:\Texas Instruments\ZStack-1.4.3-1.2.1\Projects\ #
#                          zstack\Samples\cc2430-zstack-adxl345\CC2430DB\..\. #
#                          .\..\Tools\CC2430DB\f8wConfig.cfg" (-DSECURE=0     #
#                          -DDEFAULT_CHANLIST=0x00000800                      #
#                          -DZDAPP_CONFIG_PAN_ID=0xFFFF                       #
#                          -DNWK_START_DELAY=100 -DEXTENDED_JOINING_RANDOM_MA #
#                          SK=0x007F -DBEACON_REQUEST_DELAY=100               #
#                          -DBEACON_REQ_DELAY_MASK=0x00FF                     #
#                          -DROUTE_EXPIRY_TIME=30 -DAPSC_ACK_WAIT_DURATION_PO #
#                          LLED=3000 -DNWK_INDIRECT_MSG_TIMEOUT=7             #
#                          -DMAX_RREQ_ENTRIES=10 -DAPSC_MAX_FRAME_RETRIES=3   #
#                          -DNWK_MAX_DATA_RETRIES=2                           #
#                          -DMAX_POLL_FAILURE_RETRIES=2 -DMAX_BCAST=9         #
#                          -DAPS_MAX_GROUPS=16 -DMAX_RTG_ENTRIES=20           #
#                          -DNWK_MAX_BINDING_ENTRIES=10                       #
#                          -DMAX_BINDING_CLUSTER_IDS=5 "-DDEFAULT_KEY={0x01,  #
#                          0x03, 0x05, 0x07, 0x09, 0x0B, 0x0D, 0x0F, 0x00,    #
#                          0x02, 0x04, 0x06, 0x08, 0x0A, 0x0C, 0x0D}"         #
#                          -DRFD_RCVC_ALWAYS_ON=FALSE -DPOLL_RATE=1000        #
#                          -DQUEUED_POLL_RATE=100 -DRESPONSE_POLL_RATE=100)   #
#                          -DREJOIN_POLL_RATE=440 "C:\Texas                   #
#                          Instruments\ZStack-1.4.3-1.2.1\Projects\zstack\Sam #
#                          ples\cc2430-zstack-adxl345\Source\AXD.c" -D        #
#                          CC2430EB -D REFLECTOR -D HAL_UART -D xZTOOL_P1 -D  #
#                          AXD_COR -D MT_TASK -D xMT_ZDO_FUNC -D              #
#                          LCD_SUPPORTED=DEBUG -lC "C:\Texas                  #
#                          Instruments\ZStack-1.4.3-1.2.1\Projects\zstack\Sam #
#                          ples\cc2430-zstack-adxl345\CC2430DB\CoordinatorEB\ #
#                          List\" -lA "C:\Texas Instruments\ZStack-1.4.3-1.2. #
#                          1\Projects\zstack\Samples\cc2430-zstack-adxl345\CC #
#                          2430DB\CoordinatorEB\List\" --diag_suppress        #
#                          Pe001,Pa010 --diag_remark pe550 -o "C:\Texas       #
#                          Instruments\ZStack-1.4.3-1.2.1\Projects\zstack\Sam #
#                          ples\cc2430-zstack-adxl345\CC2430DB\CoordinatorEB\ #
#                          Obj\" -e --require_prototypes -z9                  #
#                          --no_code_motion --debug --core=plain --dptr=16,1  #
#                          --data_model=large --code_model=banked             #
#                          --calling_convention=xdata_reentrant               #
#                          --place_constants=data --nr_virtual_regs 8 -I      #
#                          "C:\Texas Instruments\ZStack-1.4.3-1.2.1\Projects\ #
#                          zstack\Samples\cc2430-zstack-adxl345\CC2430DB\"    #
#                          -I "C:\Texas Instruments\ZStack-1.4.3-1.2.1\Projec #
#                          ts\zstack\Samples\cc2430-zstack-adxl345\CC2430DB\. #
#                          .\SOURCE\" -I "C:\Texas Instruments\ZStack-1.4.3-1 #
#                          .2.1\Projects\zstack\Samples\cc2430-zstack-adxl345 #
#                          \CC2430DB\..\Drivers\" -I "C:\Texas                #
#                          Instruments\ZStack-1.4.3-1.2.1\Projects\zstack\Sam #
#                          ples\cc2430-zstack-adxl345\CC2430DB\..\..\..\ZMAIN #
#                          \TI2430DB\" -I "C:\Texas                           #
#                          Instruments\ZStack-1.4.3-1.2.1\Projects\zstack\Sam #
#                          ples\cc2430-zstack-adxl345\CC2430DB\..\..\..\..\.. #
#                          \COMPONENTS\MT\" -I "C:\Texas                      #
#                          Instruments\ZStack-1.4.3-1.2.1\Projects\zstack\Sam #
#                          ples\cc2430-zstack-adxl345\CC2430DB\..\..\..\..\.. #
#                          \COMPONENTS\HAL\INCLUDE\" -I "C:\Texas             #
#                          Instruments\ZStack-1.4.3-1.2.1\Projects\zstack\Sam #
#                          ples\cc2430-zstack-adxl345\CC2430DB\..\..\..\..\.. #
#                          \COMPONENTS\HAL\TARGET\CC2430EB\" -I "C:\Texas     #
#                          Instruments\ZStack-1.4.3-1.2.1\Projects\zstack\Sam #
#                          ples\cc2430-zstack-adxl345\CC2430DB\..\..\..\..\.. #
#                          \COMPONENTS\OSAL\MCU\CCSOC\" -I "C:\Texas          #
#                          Instruments\ZStack-1.4.3-1.2.1\Projects\zstack\Sam #
#                          ples\cc2430-zstack-adxl345\CC2430DB\..\..\..\..\.. #
#                          \COMPONENTS\OSAL\INCLUDE\" -I "C:\Texas            #
#                          Instruments\ZStack-1.4.3-1.2.1\Projects\zstack\Sam #
#                          ples\cc2430-zstack-adxl345\CC2430DB\..\..\..\..\.. #
#                          \COMPONENTS\STACK\AF\" -I "C:\Texas                #
#                          Instruments\ZStack-1.4.3-1.2.1\Projects\zstack\Sam #
#                          ples\cc2430-zstack-adxl345\CC2430DB\..\..\..\..\.. #
#                          \COMPONENTS\STACK\NWK\" -I "C:\Texas               #
#                          Instruments\ZStack-1.4.3-1.2.1\Projects\zstack\Sam #
#                          ples\cc2430-zstack-adxl345\CC2430DB\..\..\..\..\.. #
#                          \COMPONENTS\STACK\SEC\" -I "C:\Texas               #
#                          Instruments\ZStack-1.4.3-1.2.1\Projects\zstack\Sam #
#                          ples\cc2430-zstack-adxl345\CC2430DB\..\..\..\..\.. #
#                          \COMPONENTS\STACK\SYS\" -I "C:\Texas               #
#                          Instruments\ZStack-1.4.3-1.2.1\Projects\zstack\Sam #
#                          ples\cc2430-zstack-adxl345\CC2430DB\..\..\..\..\.. #
#                          \COMPONENTS\STACK\ZDO\" -I "C:\Texas               #
#                          Instruments\ZStack-1.4.3-1.2.1\Projects\zstack\Sam #
#                          ples\cc2430-zstack-adxl345\CC2430DB\..\..\..\..\.. #
#                          \COMPONENTS\ZMAC\F8W\" -I "C:\Texas                #
#                          Instruments\ZStack-1.4.3-1.2.1\Projects\zstack\Sam #
#                          ples\cc2430-zstack-adxl345\CC2430DB\..\..\..\..\.. #
#                          \COMPONENTS\ZMAC\" -I "C:\Texas                    #
#                          Instruments\ZStack-1.4.3-1.2.1\Projects\zstack\Sam #
#                          ples\cc2430-zstack-adxl345\CC2430DB\..\..\..\..\.. #
#                          \COMPONENTS\SERVICES\SADDR\" -I "C:\Texas          #
#                          Instruments\ZStack-1.4.3-1.2.1\Projects\zstack\Sam #
#                          ples\cc2430-zstack-adxl345\CC2430DB\..\..\..\..\.. #
#                          \COMPONENTS\SERVICES\SDATA\" -I "C:\Texas          #
#                          Instruments\ZStack-1.4.3-1.2.1\Projects\zstack\Sam #
#                          ples\cc2430-zstack-adxl345\CC2430DB\..\..\..\..\.. #
#                          \COMPONENTS\MAC\INCLUDE\" -I "C:\Texas             #
#                          Instruments\ZStack-1.4.3-1.2.1\Projects\zstack\Sam #
#                          ples\cc2430-zstack-adxl345\CC2430DB\..\..\..\..\.. #
#                          \COMPONENTS\MAC\HIGH_LEVEL\" -I "C:\Texas          #
#                          Instruments\ZStack-1.4.3-1.2.1\Projects\zstack\Sam #
#                          ples\cc2430-zstack-adxl345\CC2430DB\..\..\..\..\.. #
#                          \COMPONENTS\MAC\LOW_LEVEL\SRF03\" -I "C:\Texas     #
#                          Instruments\ZStack-1.4.3-1.2.1\Projects\zstack\Sam #
#                          ples\cc2430-zstack-adxl345\CC2430DB\..\..\..\..\.. #
#                          \COMPONENTS\MAC\LOW_LEVEL\SRF03\SINGLE_CHIP\" -I   #
#                          "C:\Program Files\IAR Systems\Embedded Workbench   #
#                          4.0 Evaluation version\8051\INC\" -I "C:\Program   #
#                          Files\IAR Systems\Embedded Workbench 4.0           #
#                          Evaluation version\8051\INC\CLIB\"                 #
#    List file          =  C:\Texas Instruments\ZStack-1.4.3-1.2.1\Projects\z #
#                          stack\Samples\cc2430-zstack-adxl345\CC2430DB\Coord #
#                          inatorEB\List\AXD.lst                              #
#    Object file        =  C:\Texas Instruments\ZStack-1.4.3-1.2.1\Projects\z #
#                          stack\Samples\cc2430-zstack-adxl345\CC2430DB\Coord #
#                          inatorEB\Obj\AXD.r51                               #
#                                                                             #
#                                                                             #
###############################################################################

C:\Texas Instruments\ZStack-1.4.3-1.2.1\Projects\zstack\Samples\cc2430-zstack-adxl345\Source\AXD.c
      1          /**************************************************************************************************
      2            Filename:       AXD.c
      3            Revised:        $Date: 2007-10-27 17:16:54 -0700 (Sat, 27 Oct 2007) $
      4            Revision:       $Revision: 15793 $
      5          
      6            Description:    Generic Application (no Profile).
      7          
      8          
      9            Copyright 2004-2007 Texas Instruments Incorporated. All rights reserved.
     10          
     11            IMPORTANT: Your use of this Software is limited to those specific rights
     12            granted under the terms of a software license agreement between the user
     13            who downloaded the software, his/her employer (which must be your employer)
     14            and Texas Instruments Incorporated (the "License").  You may not use this
     15            Software unless you agree to abide by the terms of the License. The License
     16            limits your use, and you acknowledge, that the Software may not be modified,
     17            copied or distributed unless embedded on a Texas Instruments microcontroller
     18            or used solely and exclusively in conjunction with a Texas Instruments radio
     19            frequency transceiver, which is integrated into your product.  Other than for
     20            the foregoing purpose, you may not use, reproduce, copy, prepare derivative
     21            works of, modify, distribute, perform, display or sell this Software and/or
     22            its documentation for any purpose.
     23          
     24            YOU FURTHER ACKNOWLEDGE AND AGREE THAT THE SOFTWARE AND DOCUMENTATION ARE
     25            PROVIDED AS IS?WITHOUT WARRANTY OF ANY KIND, EITHER EXPRESS OR IMPLIED, 
     26            INCLUDING WITHOUT LIMITATION, ANY WARRANTY OF MERCHANTABILITY, TITLE, 
     27            NON-INFRINGEMENT AND FITNESS FOR A PARTICULAR PURPOSE. IN NO EVENT SHALL
     28            TEXAS INSTRUMENTS OR ITS LICENSORS BE LIABLE OR OBLIGATED UNDER CONTRACT,
     29            NEGLIGENCE, STRICT LIABILITY, CONTRIBUTION, BREACH OF WARRANTY, OR OTHER
     30            LEGAL EQUITABLE THEORY ANY DIRECT OR INDIRECT DAMAGES OR EXPENSES
     31            INCLUDING BUT NOT LIMITED TO ANY INCIDENTAL, SPECIAL, INDIRECT, PUNITIVE
     32            OR CONSEQUENTIAL DAMAGES, LOST PROFITS OR LOST DATA, COST OF PROCUREMENT
     33            OF SUBSTITUTE GOODS, TECHNOLOGY, SERVICES, OR ANY CLAIMS BY THIRD PARTIES
     34            (INCLUDING BUT NOT LIMITED TO ANY DEFENSE THEREOF), OR OTHER SIMILAR COSTS.
     35          
     36            Should you have any questions regarding your right to use this Software,
     37            contact Texas Instruments Incorporated at www.TI.com. 
     38          **************************************************************************************************/
     39          
     40          /*********************************************************************
     41            This application isn't intended to do anything useful, it is
     42            intended to be a simple example of an application's structure.
     43          
     44            This application sends "Hello World" to another "Generic"
     45            application every 15 seconds.  The application will also
     46            receive "Hello World" packets.
     47          
     48            The "Hello World" messages are sent/received as MSG type message.
     49          
     50            This applications doesn't have a profile, so it handles everything
     51            directly - itself.
     52          
     53            Key control:
     54              SW1:
     55              SW2:  initiates end device binding
     56              SW3:
     57              SW4:  initiates a match description request
     58          *********************************************************************/
     59          
     60          /*********************************************************************
     61           * INCLUDES
     62           */
     63          #include "OSAL.h"
     64          #include "AF.h"
     65          #include "ZDApp.h"
     66          #include "ZDObject.h"
     67          #include "ZDProfile.h"
     68          #include "aps_groups.h"
     69          
     70          #include "AXD.h"
     71          #include "DebugTrace.h"
     72          
     73          #if !defined( WIN32 )
     74            #include "OnBoard.h"

   \                                 In  segment SFR_AN, at 0x88
   \   union <unnamed> volatile __sfr _A_TCON
   \                     _A_TCON:
   \   000000                DS 1

   \                                 In  segment SFR_AN, at 0xb6
   \   unsigned char volatile __sfr ADCCON3
   \                     ADCCON3:
   \   000000                DS 1

   \                                 In  segment SFR_AN, at 0xba
   \   unsigned char volatile __sfr ADCL
   \                     ADCL:
   \   000000                DS 1

   \                                 In  segment SFR_AN, at 0xbb
   \   unsigned char volatile __sfr ADCH
   \                     ADCH:
   \   000000                DS 1
     75          #endif
     76          
     77          /* HAL */
     78          #include "hal_lcd.h"
     79          #include "hal_led.h"
     80          #include "hal_key.h"
     81          #include "hal_uart.h"
     82          
     83          /*用户自己的头文件*/
     84          #include "adxl345.h"
     85          #include "readaxd.h"
     86          
     87          /*********************************************************************
     88           * MACROS
     89           */
     90          #define FREE_OTABUF() { \
     91            if ( otaBuf ) \
     92            { \
     93              osal_mem_free( otaBuf ); \
     94            } \
     95            if ( otaBuf2 ) \
     96            { \
     97              SerialApp_SendData( otaBuf2, otaLen2 ); \
     98              otaBuf2 = NULL; \
     99            } \
    100            else \
    101            { \
    102              otaBuf = NULL; \
    103            } \
    104          }
    105          
    106          #define HAL_ADC_REF_125V    0x00    /* Internal 1.25V Reference */
    107          #define HAL_ADC_DEC_064     0x00    /* Decimate by 64 : 8-bit resolution */
    108          #define HAL_ADC_DEC_128     0x10    /* Decimate by 128 : 10-bit resolution */
    109          #define HAL_ADC_DEC_512     0x30    /* Decimate by 512 : 14-bit resolution */
    110          #define HAL_ADC_CHN_VDD3    0x0f    /* Input channel: VDD/3 */
    111          #define HAL_ADC_CHN_TEMP    0x0e    /* Temperature sensor */
    112          
    113          #define DEVICE_A 0x01;
    114          #define DEVICE_B 0x02;
    115          #define DEVICE_C 0x03;
    116          /*********************************************************************
    117           * CONSTANTS
    118           */
    119          #define ZB_USER_EVENTS                    0x00FF
    120          #if !defined( SERIAL_APP_PORT )
    121            #define SERIAL_APP_PORT  0
    122          #endif
    123          
    124          #if !defined( SERIAL_APP_BAUD )
    125            // CC2430 only allows 38.4k or 115.2k.
    126            //#define SERIAL_APP_BAUD  HAL_UART_BR_38400
    127            #define SERIAL_APP_BAUD  HAL_UART_BR_115200
    128          #endif
    129          
    130          // When the Rx buf space is less than this threshold, invoke the Rx callback.
    131          #if !defined( SERIAL_APP_THRESH )
    132            #define SERIAL_APP_THRESH  48
    133          #endif
    134          
    135          #if !defined( SERIAL_APP_RX_MAX )
    136            #if (defined( HAL_UART_DMA )) && HAL_UART_DMA
    137              #define SERIAL_APP_RX_MAX  128
    138            #else
    139              /* The generic safe Rx minimum is 48, but if you know your PC App will not
    140               * continue to send more than a byte after receiving the ~CTS, lower max
    141               * here and safe min in _hal_uart.c to just 8.
    142               */
    143              #define SERIAL_APP_RX_MAX  64
    144            #endif
    145          #endif
    146          
    147          #if !defined( SERIAL_APP_TX_MAX )
    148            #if (defined( HAL_UART_DMA )) && HAL_UART_DMA
    149            #define SERIAL_APP_TX_MAX  128
    150            #else
    151              #define SERIAL_APP_TX_MAX  64
    152            #endif
    153          #endif
    154          
    155          // Millisecs of idle time after a byte is received before invoking Rx callback.
    156          #if !defined( SERIAL_APP_IDLE )
    157            #define SERIAL_APP_IDLE  6
    158          #endif
    159          
    160          // This is the desired byte count per OTA message.
    161          #if !defined( SERIAL_APP_RX_CNT )
    162            #if (defined( HAL_UART_DMA )) && HAL_UART_DMA
    163              #define SERIAL_APP_RX_CNT  80
    164            #else
    165              #define SERIAL_APP_RX_CNT  6
    166            #endif
    167          #endif
    168          
    169          // Loopback Rx bytes to Tx for thruput testing.
    170          #if !defined( SERIAL_APP_LOOPBACK )
    171            #define SERIAL_APP_LOOPBACK  TRUE
    172          #endif
    173          
    174          #if SERIAL_APP_LOOPBACK
    175            #define SERIALAPP_TX_RTRY_EVT      0x0010
    176            #define SERIALAPP_TX_RTRY_TIMEOUT  250
    177          #endif
    178          
    179          #define SERIAL_APP_RSP_CNT  4
    180          
    181          /*********************************************************************
    182           * TYPEDEFS
    183           */
    184          
    185          /*********************************************************************
    186           * GLOBAL VARIABLES
    187           */

   \                                 In  segment XDATA_Z, align 1, keep-with-next
    188          aps_Group_t AXD_Group;
   \                     AXD_Group:
   \   000000                DS 18
   \   000012                REQUIRE __INIT_XDATA_Z
    189          
    190          // This list should be filled with Application specific Cluster IDs.

   \                                 In  segment XDATA_I, align 1, keep-with-next
    191          const cId_t AXD_ClusterList[AXD_MAX_CLUSTERS] =
   \                     AXD_ClusterList:
   \   000000                DS 6
   \   000006                REQUIRE `?<Initializer for AXD_ClusterList>`
   \   000006                REQUIRE __INIT_XDATA_I
    192          {
    193            AXD_CLUSTERID,
    194            AXD_TEST_CLUSTERID
    195          };
    196          

   \                                 In  segment XDATA_I, align 1, keep-with-next
    197          const SimpleDescriptionFormat_t AXD_SimpleDesc =
   \                     AXD_SimpleDesc:
   \   000000                DS 12
   \   00000C                REQUIRE `?<Initializer for AXD_SimpleDesc>`
   \   00000C                REQUIRE __INIT_XDATA_I
    198          {
    199            AXD_ENDPOINT,              //  int Endpoint;
    200            AXD_PROFID,                //  uint16 AppProfId[2];
    201            AXD_DEVICEID,              //  uint16 AppDeviceId[2];
    202            AXD_DEVICE_VERSION,        //  int   AppDevVer:4;
    203            AXD_FLAGS,                 //  int   AppFlags:4;
    204            AXD_MAX_CLUSTERS,          //  byte  AppNumInClusters;
    205            (cId_t *)AXD_ClusterList,  //  byte *pAppInClusterList;
    206            AXD_MAX_CLUSTERS,          //  byte  AppNumInClusters;
    207            (cId_t *)AXD_ClusterList   //  byte *pAppInClusterList;
    208          };
    209          
    210          // This is the Endpoint/Interface description.  It is defined here, but
    211          // filled-in in AXD_Init().  Another way to go would be to fill
    212          // in the structure here and make it a "const" (in code space).  The
    213          // way it's defined in this sample app it is define in RAM.

   \                                 In  segment XDATA_Z, align 1, keep-with-next
    214          endPointDesc_t AXD_epDesc;
   \                     AXD_epDesc:
   \   000000                DS 6
   \   000006                REQUIRE __INIT_XDATA_Z
    215          
    216          /*********************************************************************
    217           * EXTERNAL VARIABLES
    218           */

   \                                 In  segment XDATA_Z, align 1, keep-with-next
    219          uint16 test2 = 0;
   \                     test2:
   \   000000                DS 2
   \   000002                REQUIRE __INIT_XDATA_Z
    220          
    221          /*********************************************************************
    222           * EXTERNAL FUNCTIONS
    223           */
    224          
    225          /*********************************************************************
    226           * LOCAL VARIABLES
    227           */

   \                                 In  segment XDATA_Z, align 1, keep-with-next
    228          byte AXD_TaskID;   // Task ID for internal task/event processing
   \                     AXD_TaskID:
   \   000000                DS 1
   \   000001                REQUIRE __INIT_XDATA_Z
    229                                    // This variable will be received when
    230                                    // AXD_Init() is called.

   \                                 In  segment XDATA_Z, align 1, keep-with-next
    231          devStates_t AXD_NwkState;
   \                     AXD_NwkState:
   \   000000                DS 1
   \   000001                REQUIRE __INIT_XDATA_Z
    232          
    233          

   \                                 In  segment XDATA_Z, align 1, keep-with-next
    234          byte AXD_TransID;  // This is the unique message ID (counter)
   \                     AXD_TransID:
   \   000000                DS 1
   \   000001                REQUIRE __INIT_XDATA_Z
    235          //byte AXD_TransID2;
    236          

   \                                 In  segment XDATA_Z, align 1, keep-with-next
    237          afAddrType_t AXD_DstAddr;
   \                     AXD_DstAddr:
   \   000000                DS 4
   \   000004                REQUIRE __INIT_XDATA_Z
    238          #if SERIAL_APP_LOOPBACK

   \                                 In  segment XDATA_Z, align 1, keep-with-next
    239          static uint8 rxLen;
   \                     rxLen:
   \   000000                DS 1
   \   000001                REQUIRE __INIT_XDATA_Z

   \                                 In  segment XDATA_Z, align 1, keep-with-next
    240          static uint8 rxBuf[SERIAL_APP_RX_CNT];
   \                     rxBuf:
   \   000000                DS 80
   \   000050                REQUIRE __INIT_XDATA_Z
    241          #endif
    242          
    243          /*********************************************************************
    244           * LOCAL FUNCTIONS
    245           */
    246          void AXD_ProcessZDOMsgs( zdoIncomingMsg_t *inMsg );
    247          void AXD_HandleKeys( byte shift, byte keys );
    248          void AXD_MessageMSGCB( afIncomingMSGPacket_t *pckt );
    249          void AXD_SendTheMessage( void );
    250          
    251          #if SERIAL_APP_LOOPBACK
    252          static void rxCB_Loopback( uint8 port, uint8 event );
    253          #else
    254          static void rxCB( uint8 port, uint8 event );
    255          #endif
    256          
    257          /*********************************************************************
    258           * NETWORK LAYER CALLBACKS
    259           */
    260          
    261          /*********************************************************************
    262           * PUBLIC FUNCTIONS
    263           */
    264          
    265          /*********************************************************************
    266           * @fn      AXD_Init
    267           *
    268           * @brief   Initialization function for the Generic App Task.
    269           *          This is called during initialization and should contain
    270           *          any application specific initialization (ie. hardware
    271           *          initialization/setup, table initialization, power up
    272           *          notificaiton ... ).
    273           *
    274           * @param   task_id - the ID assigned by OSAL.  This ID should be
    275           *                    used to send messages and set timers.
    276           *
    277           * @return  none
    278           */

   \                                 In  segment BANKED_CODE, align 1, keep-with-next
    279          void AXD_Init( byte task_id )
   \                     AXD_Init:
    280          {
   \   000000   C082         PUSH    DPL
   \   000002   C083         PUSH    DPH
   \   000004                ; Saved register size: 2
   \   000004                ; Auto size: 29
   \   000004   74E3         MOV     A,#-0x1d
   \   000006   12....       LCALL   ?ALLOC_XSTACK8
    281            halUARTCfg_t uartConfig;
    282            AXD_TaskID = task_id;
   \   000009   E9           MOV     A,R1
   \   00000A   90....       MOV     DPTR,#AXD_TaskID
   \   00000D   F0           MOVX    @DPTR,A
    283            AXD_NwkState = DEV_INIT;
   \   00000E   7401         MOV     A,#0x1
   \   000010   90....       MOV     DPTR,#AXD_NwkState
   \   000013   F0           MOVX    @DPTR,A
    284            AXD_TransID = 0;
   \   000014   E4           CLR     A
   \   000015   90....       MOV     DPTR,#AXD_TransID
   \   000018   F0           MOVX    @DPTR,A
    285          //  AXD_TransID2 = 1;
    286          
    287            // Device hardware initialization can be added here or in main() (Zmain.c).
    288            // If the hardware is application specific - add it here.
    289            // If the hardware is other parts of the device add it in main().
    290          
    291            AXD_DstAddr.addrMode = (afAddrMode_t)AddrNotPresent;
   \   000019   90....       MOV     DPTR,#(AXD_DstAddr + 2)
   \   00001C   F0           MOVX    @DPTR,A
    292            AXD_DstAddr.endPoint = 0;
   \   00001D   90....       MOV     DPTR,#(AXD_DstAddr + 3)
   \   000020   F0           MOVX    @DPTR,A
    293            AXD_DstAddr.addr.shortAddr = 0;
   \   000021   90....       MOV     DPTR,#AXD_DstAddr
   \   000024   F0           MOVX    @DPTR,A
   \   000025   A3           INC     DPTR
   \   000026   F0           MOVX    @DPTR,A
    294          
    295            // Fill out the endpoint description.
    296            AXD_epDesc.endPoint = AXD_ENDPOINT;
   \   000027   740A         MOV     A,#0xa
   \   000029   90....       MOV     DPTR,#AXD_epDesc
   \   00002C   F0           MOVX    @DPTR,A
    297            AXD_epDesc.task_id = &AXD_TaskID;
   \   00002D   90....       MOV     DPTR,#(AXD_epDesc + 1)
   \   000030   74..         MOV     A,#(AXD_TaskID & 0xff)
   \   000032   F0           MOVX    @DPTR,A
   \   000033   A3           INC     DPTR
   \   000034   74..         MOV     A,#((AXD_TaskID >> 8) & 0xff)
   \   000036   F0           MOVX    @DPTR,A
    298            AXD_epDesc.simpleDesc
    299                      = (SimpleDescriptionFormat_t *)&AXD_SimpleDesc;
   \   000037   90....       MOV     DPTR,#(AXD_epDesc + 3)
   \   00003A   74..         MOV     A,#(AXD_SimpleDesc & 0xff)
   \   00003C   F0           MOVX    @DPTR,A
   \   00003D   A3           INC     DPTR
   \   00003E   74..         MOV     A,#((AXD_SimpleDesc >> 8) & 0xff)
   \   000040   F0           MOVX    @DPTR,A
    300            AXD_epDesc.latencyReq = noLatencyReqs;
   \   000041   E4           CLR     A
   \   000042   90....       MOV     DPTR,#(AXD_epDesc + 5)
   \   000045   F0           MOVX    @DPTR,A
    301          
    302            // Register the endpoint description with the AF
    303            afRegister( &AXD_epDesc );
   \   000046                ; Setup parameters for call to function afRegister
   \   000046   7A..         MOV     R2,#(AXD_epDesc & 0xff)
   \   000048   7B..         MOV     R3,#((AXD_epDesc >> 8) & 0xff)
   \   00004A   12....       LCALL   ??afRegister?relay
    304          
    305            // Register for all key events - This app will handle all key events
    306            RegisterForKeys( AXD_TaskID );
   \   00004D                ; Setup parameters for call to function RegisterForKeys
   \   00004D   90....       MOV     DPTR,#AXD_TaskID
   \   000050   E0           MOVX    A,@DPTR
   \   000051   F9           MOV     R1,A
   \   000052   12....       LCALL   ??RegisterForKeys?relay
    307            uartConfig.configured           = TRUE;              // 2430 don't care.
   \   000055   7401         MOV     A,#0x1
   \   000057   85..82       MOV     DPL,?XSP + 0
   \   00005A   85..83       MOV     DPH,?XSP + 1
   \   00005D   F0           MOVX    @DPTR,A
    308            uartConfig.baudRate             = SERIAL_APP_BAUD;
   \   00005E   12....       LCALL   ?XSTACK_DISP0_8
   \   000061   7408         MOV     A,#0x8
   \   000063   F0           MOVX    @DPTR,A
    309            uartConfig.flowControl          = TRUE;
   \   000064   7402         MOV     A,#0x2
   \   000066   12....       LCALL   ?XSTACK_DISP0_8
   \   000069   7401         MOV     A,#0x1
   \   00006B   F0           MOVX    @DPTR,A
    310            uartConfig.flowControlThreshold = SERIAL_APP_THRESH;
   \   00006C   7403         MOV     A,#0x3
   \   00006E   12....       LCALL   ?XSTACK_DISP0_8
   \   000071   7430         MOV     A,#0x30
   \   000073   F0           MOVX    @DPTR,A
   \   000074   A3           INC     DPTR
   \   000075   E4           CLR     A
   \   000076   F0           MOVX    @DPTR,A
    311            uartConfig.rx.maxBufSize        = SERIAL_APP_RX_MAX;
   \   000077   740A         MOV     A,#0xa
   \   000079   12....       LCALL   ?XSTACK_DISP0_8
   \   00007C   7480         MOV     A,#-0x80
   \   00007E   F0           MOVX    @DPTR,A
   \   00007F   A3           INC     DPTR
   \   000080   E4           CLR     A
   \   000081   F0           MOVX    @DPTR,A
    312            uartConfig.tx.maxBufSize        = SERIAL_APP_TX_MAX;
   \   000082   7412         MOV     A,#0x12
   \   000084   12....       LCALL   ?XSTACK_DISP0_8
   \   000087   7480         MOV     A,#-0x80
   \   000089   F0           MOVX    @DPTR,A
   \   00008A   A3           INC     DPTR
   \   00008B   E4           CLR     A
   \   00008C   F0           MOVX    @DPTR,A
    313            uartConfig.idleTimeout          = SERIAL_APP_IDLE;   // 2430 don't care.
   \   00008D   7405         MOV     A,#0x5
   \   00008F   12....       LCALL   ?XSTACK_DISP0_8
   \   000092   7406         MOV     A,#0x6
   \   000094   F0           MOVX    @DPTR,A
    314            uartConfig.intEnable            = TRUE;              // 2430 don't care.
   \   000095   7416         MOV     A,#0x16
   \   000097   12....       LCALL   ?XSTACK_DISP0_8
   \   00009A   7401         MOV     A,#0x1
   \   00009C   F0           MOVX    @DPTR,A
    315          #if SERIAL_APP_LOOPBACK
    316            uartConfig.callBackFunc         = rxCB_Loopback;
   \   00009D   741B         MOV     A,#0x1b
   \   00009F   12....       LCALL   ?XSTACK_DISP0_8
   \   0000A2   74..         MOV     A,#(??rxCB_Loopback?relay & 0xff)
   \   0000A4   F0           MOVX    @DPTR,A
   \   0000A5   A3           INC     DPTR
   \   0000A6   74..         MOV     A,#((??rxCB_Loopback?relay >> 8) & 0xff)
   \   0000A8   12....       LCALL   ?Subroutine1 & 0xFFFF
    317          #else
    318            uartConfig.callBackFunc         = rxCB;
    319          #endif
    320            HalUARTOpen (SERIAL_APP_PORT, &uartConfig);
   \                     ??CrossCallReturnLabel_2:
   \   0000AB   AA82         MOV     R2,DPL
   \   0000AD   AB83         MOV     R3,DPH
   \   0000AF   7900         MOV     R1,#0x0
   \   0000B1   12....       LCALL   ??HalUARTOpen?relay
    321          
    322            // Update the display
    323          #if defined ( LCD_SUPPORTED )
    324              HalLcdWriteString( "AXD", HAL_LCD_LINE_1 );
   \   0000B4                ; Setup parameters for call to function HalLcdWriteString
   \   0000B4   7900         MOV     R1,#0x0
   \   0000B6   7A..         MOV     R2,#(`?<Constant "AXD">` & 0xff)
   \   0000B8   7B..         MOV     R3,#((`?<Constant "AXD">` >> 8) & 0xff)
   \   0000BA   12....       LCALL   ??HalLcdWriteString?relay
    325          #endif
    326          
    327            ZDO_RegisterForZDOMsg( AXD_TaskID, End_Device_Bind_rsp );
   \   0000BD                ; Setup parameters for call to function ZDO_RegisterForZDOMsg
   \   0000BD   7A20         MOV     R2,#0x20
   \   0000BF   7B80         MOV     R3,#-0x80
   \   0000C1   90....       MOV     DPTR,#AXD_TaskID
   \   0000C4   E0           MOVX    A,@DPTR
   \   0000C5   F9           MOV     R1,A
   \   0000C6   12....       LCALL   ??ZDO_RegisterForZDOMsg?relay
    328            ZDO_RegisterForZDOMsg( AXD_TaskID, Match_Desc_rsp );
   \   0000C9                ; Setup parameters for call to function ZDO_RegisterForZDOMsg
   \   0000C9   7A06         MOV     R2,#0x6
   \   0000CB   7B80         MOV     R3,#-0x80
   \   0000CD   90....       MOV     DPTR,#AXD_TaskID
   \   0000D0   E0           MOVX    A,@DPTR
   \   0000D1   F9           MOV     R1,A
   \   0000D2   12....       LCALL   ??ZDO_RegisterForZDOMsg?relay
    329            
    330            AXD_Group.ID = AXD_GROUP;
   \   0000D5   90....       MOV     DPTR,#AXD_Group
   \   0000D8   7401         MOV     A,#0x1
   \   0000DA   F0           MOVX    @DPTR,A
   \   0000DB   A3           INC     DPTR
   \   0000DC   E4           CLR     A
   \   0000DD   F0           MOVX    @DPTR,A
    331            aps_AddGroup(AXD_ENDPOINT,&AXD_Group);
   \   0000DE                ; Setup parameters for call to function aps_AddGroup
   \   0000DE   7A..         MOV     R2,#(AXD_Group & 0xff)
   \   0000E0   7B..         MOV     R3,#((AXD_Group >> 8) & 0xff)
   \   0000E2   790A         MOV     R1,#0xa
   \   0000E4   12....       LCALL   ??aps_AddGroup?relay
    332            //下面是用户自定义的初始化
    333          #ifdef AXD_END
    334            Init_ADXL345();
    335          #endif
    336          }
   \   0000E7   741D         MOV     A,#0x1d
   \   0000E9   12....       LCALL   ?DEALLOC_XSTACK8
   \   0000EC   D083         POP     DPH
   \   0000EE   D082         POP     DPL
   \   0000F0   02....       LJMP    ?BRET

   \                                 In  segment BANKED_CODE, align 1, keep-with-next
   \                     ?Subroutine1:
   \   000000   F0           MOVX    @DPTR,A
   \   000001                ; Setup parameters for call to function HalUARTOpen
   \   000001   85..82       MOV     DPL,?XSP + 0
   \   000004   85..83       MOV     DPH,?XSP + 1
   \   000007   22           RET
    337          
    338          /*********************************************************************
    339           * @fn      AXD_ProcessEvent
    340           *
    341           * @brief   Generic Application Task event processor.  This function
    342           *          is called to process all events for the task.  Events
    343           *          include timers, messages and any other user defined events.
    344           *
    345           * @param   task_id  - The OSAL assigned task ID.
    346           * @param   events - events to process.  This is a bit map and can
    347           *                   contain more than one event.
    348           *
    349           * @return  none
    350           */

   \                                 In  segment BANKED_CODE, align 1, keep-with-next
    351          UINT16 AXD_ProcessEvent( byte task_id, UINT16 events )
   \                     AXD_ProcessEvent:
    352          {
   \   000000   74F4         MOV     A,#-0xc
   \   000002   12....       LCALL   ?BANKED_ENTER_XDATA
   \   000005                ; Saved register size: 12
   \   000005                ; Auto size: 0
   \   000005   EA           MOV     A,R2
   \   000006   FE           MOV     R6,A
   \   000007   EB           MOV     A,R3
   \   000008   FF           MOV     R7,A
    353            
    354            afIncomingMSGPacket_t *MSGpkt;
    355          //  osal_event_hdr_t *pMsg;
    356            afDataConfirm_t *afDataConfirm;
    357          
    358            // Data Confirmation message fields
    359            byte sentEP;
    360            ZStatus_t sentStatus;
    361            byte sentTransID;       // This should match the value sent
    362          #ifdef AXD_END
    363            BUFFER[0] = 0;
    364            BUFFER[1] = DEVICE_A;
    365          #endif
    366          
    367            if ( events & SYS_EVENT_MSG )
   \   000009   7480         MOV     A,#-0x80
   \   00000B   5F           ANL     A,R7
   \   00000C   F9           MOV     R1,A
   \   00000D   E4           CLR     A
   \   00000E   7001         JNZ     ??AXD_ProcessEvent_0
   \   000010   E9           MOV     A,R1
   \                     ??AXD_ProcessEvent_0:
   \   000011   7003         JNZ     $+5
   \   000013   02....       LJMP    ??AXD_ProcessEvent_1 & 0xFFFF
    368            {
    369              MSGpkt = (afIncomingMSGPacket_t *)osal_msg_receive( AXD_TaskID );
   \   000016                ; Setup parameters for call to function osal_msg_receive
   \   000016   8028         SJMP    ??AXD_ProcessEvent_2
    370              while ( MSGpkt )
    371              {
    372                switch ( MSGpkt->hdr.event )
    373                {
    374                  case ZDO_CB_MSG:
    375                    AXD_ProcessZDOMsgs( (zdoIncomingMsg_t *)MSGpkt );
    376                    break;
    377          
    378                  case KEY_CHANGE:
    379                    AXD_HandleKeys( ((keyChange_t *)MSGpkt)->state, ((keyChange_t *)MSGpkt)->keys );
    380                    break;
    381          
    382                  case AF_DATA_CONFIRM_CMD:
    383                    // This message is received as a confirmation of a data packet sent.
    384                    // The status is of ZStatus_t type [defined in ZComDef.h]
    385                    // The message fields are defined in AF.h
    386                    afDataConfirm = (afDataConfirm_t *)MSGpkt;
    387                    sentEP = afDataConfirm->endpoint;
    388                    sentStatus = afDataConfirm->hdr.status;
    389                    sentTransID = afDataConfirm->transID;
    390                    (void)sentEP;
    391                    (void)sentTransID;
    392          
    393                    // Action taken when confirmation is received.
    394                    if ( sentStatus != ZSuccess )
    395                    {
    396                      // The data wasn't delivered -- Do something
    397                    }
    398                    break;
    399          
    400                  case AF_INCOMING_MSG_CMD:
    401              //      MSGpkt = (afIncomingMSGPacket_t *) pMsg;
    402          #ifdef AXD_COR
    403                    //AXD_ReceiveDataIndication( MSGpkt->srcAddr.addr.shortAddr, MSGpkt->clusterId,
    404                    //                          MSGpkt->cmd.DataLength, MSGpkt->cmd.Data);
    405                    AXD_MessageMSGCB( MSGpkt );
    406          #endif
    407                    break;
    408          
    409                  case ZDO_STATE_CHANGE:
    410                    AXD_NwkState = (devStates_t)(MSGpkt->hdr.status);
   \                     ??AXD_ProcessEvent_3:
   \   000018   85..82       MOV     DPL,?V0 + 0
   \   00001B   85..83       MOV     DPH,?V0 + 1
   \   00001E   A3           INC     DPTR
   \   00001F   E0           MOVX    A,@DPTR
   \   000020   90....       MOV     DPTR,#AXD_NwkState
   \   000023   F0           MOVX    @DPTR,A
    411                    if ( (AXD_NwkState == DEV_ZB_COORD)
    412                        || (AXD_NwkState == DEV_ROUTER)
    413                        || (AXD_NwkState == DEV_END_DEVICE) )
   \   000024   6409         XRL     A,#0x9
   \   000026   600A         JZ      ??AXD_ProcessEvent_4
   \   000028   E0           MOVX    A,@DPTR
   \   000029   6407         XRL     A,#0x7
   \   00002B   6005         JZ      ??AXD_ProcessEvent_4
   \   00002D   E0           MOVX    A,@DPTR
   \   00002E   6406         XRL     A,#0x6
   \   000030   7007         JNZ     ??CrossCallReturnLabel_7
    414                    {
    415                      // Start sending "the" message in a regular interval.
    416                      osal_start_timerEx( AXD_TaskID,
    417                                          AXD_SEND_MSG_EVT,
    418                                          AXD_SEND_MSG_TIMEOUT );
   \                     ??AXD_ProcessEvent_4:
   \   000032                ; Setup parameters for call to function osal_start_timerEx
   \   000032   7C88         MOV     R4,#-0x78
   \   000034   7D13         MOV     R5,#0x13
   \   000036   12....       LCALL   ?Subroutine3 & 0xFFFF
    419                    }
    420                    break;
    421          
    422                  default:
    423                    break;
    424                }
    425          
    426                // Release the memory
    427                osal_msg_deallocate( (uint8 *)MSGpkt );
   \                     ??CrossCallReturnLabel_7:
   \   000039                ; Setup parameters for call to function osal_msg_deallocate
   \   000039   AA..         MOV     R2,?V0 + 0
   \   00003B   AB..         MOV     R3,?V0 + 1
   \   00003D   12....       LCALL   ??osal_msg_deallocate?relay
    428          
    429                // Next
    430                MSGpkt = (afIncomingMSGPacket_t *)osal_msg_receive( AXD_TaskID );
   \   000040                ; Setup parameters for call to function osal_msg_receive
   \                     ??AXD_ProcessEvent_2:
   \   000040   90....       MOV     DPTR,#AXD_TaskID
   \   000043   E0           MOVX    A,@DPTR
   \   000044   F9           MOV     R1,A
   \   000045   12....       LCALL   ??osal_msg_receive?relay
   \   000048   8A..         MOV     ?V0 + 0,R2
   \   00004A   8B..         MOV     ?V0 + 1,R3
   \   00004C   E5..         MOV     A,?V0 + 0
   \   00004E   7002         JNZ     ??AXD_ProcessEvent_5
   \   000050   E5..         MOV     A,?V0 + 1
   \                     ??AXD_ProcessEvent_5:
   \   000052   6046         JZ      ??AXD_ProcessEvent_6
   \   000054   85..82       MOV     DPL,?V0 + 0
   \   000057   85..83       MOV     DPH,?V0 + 1
   \   00005A   E0           MOVX    A,@DPTR
   \   00005B   12....       LCALL   ?UC_SWITCH_SPARSE
   \                     `?<Jumptable for AXD_ProcessEvent>_0`:
   \   00005E   00           DB        0
   \   00005F   04           DB        4
   \   000060   1A           DB        26
   \   000061   ....         DW        ??AXD_ProcessEvent_7
   \   000063   C0           DB        192
   \   000064   ....         DW        ??AXD_ProcessEvent_8
   \   000066   D1           DB        209
   \   000067   ....         DW        ??AXD_ProcessEvent_3
   \   000069   D3           DB        211
   \   00006A   ....         DW        ??AXD_ProcessEvent_9
   \   00006C   ....         DW        ??CrossCallReturnLabel_7
   \                     ??AXD_ProcessEvent_9:
   \   00006E                ; Setup parameters for call to function AXD_ProcessZDOMsgs
   \   00006E   AA..         MOV     R2,?V0 + 0
   \   000070   AB..         MOV     R3,?V0 + 1
   \   000072   12....       LCALL   ??AXD_ProcessZDOMsgs?relay
   \   000075   80C2         SJMP    ??CrossCallReturnLabel_7
   \                     ??AXD_ProcessEvent_8:
   \   000077                ; Setup parameters for call to function AXD_HandleKeys
   \   000077   85..82       MOV     DPL,?V0 + 0
   \   00007A   85..83       MOV     DPH,?V0 + 1
   \   00007D   A3           INC     DPTR
   \   00007E   A3           INC     DPTR
   \   00007F   A3           INC     DPTR
   \   000080   E0           MOVX    A,@DPTR
   \   000081   FA           MOV     R2,A
   \   000082   85..82       MOV     DPL,?V0 + 0
   \   000085   85..83       MOV     DPH,?V0 + 1
   \   000088   A3           INC     DPTR
   \   000089   A3           INC     DPTR
   \   00008A   E0           MOVX    A,@DPTR
   \   00008B   F9           MOV     R1,A
   \   00008C   12....       LCALL   ??AXD_HandleKeys?relay
   \   00008F   80A8         SJMP    ??CrossCallReturnLabel_7
   \                     ??AXD_ProcessEvent_7:
   \   000091                ; Setup parameters for call to function AXD_MessageMSGCB
   \   000091   AA..         MOV     R2,?V0 + 0
   \   000093   AB..         MOV     R3,?V0 + 1
   \   000095   12....       LCALL   ??AXD_MessageMSGCB?relay
   \   000098   809F         SJMP    ??CrossCallReturnLabel_7
    431              }
    432          
    433              // return unprocessed events
    434              return (events ^ SYS_EVENT_MSG);
   \                     ??AXD_ProcessEvent_6:
   \   00009A   EE           MOV     A,R6
   \   00009B   FA           MOV     R2,A
   \   00009C   7480         MOV     A,#-0x80
   \   00009E   6F           XRL     A,R7
   \                     ??AXD_ProcessEvent_10:
   \   00009F   FB           MOV     R3,A
   \   0000A0   801C         SJMP    ??AXD_ProcessEvent_11
    435            }
    436          
    437            // Send a message out - This event is generated by a timer
    438            //  (setup in AXD_Init()).
    439            if ( events & AXD_SEND_MSG_EVT )
   \                     ??AXD_ProcessEvent_1:
   \   0000A2   EE           MOV     A,R6
   \   0000A3   A2E0         MOV     C,0xE0 /* A   */.0
   \   0000A5   500E         JNC     ??AXD_ProcessEvent_12
    440            {
    441              //zb_HandleOsalEvent(events);
    442              AXD_SendTheMessage();
    443              // Setup to send message again
    444          #ifdef AXD_ROUTER
    445              test2++;
    446          #endif
    447          #ifdef AXD_END2
    448              test2--;
    449          #endif
    450              osal_start_timerEx( AXD_TaskID,
    451                                  AXD_SEND_MSG_EVT,
    452                                  (AXD_SEND_MSG_TIMEOUT/100) );
   \   0000A7                ; Setup parameters for call to function osal_start_timerEx
   \   0000A7   7C32         MOV     R4,#0x32
   \   0000A9   7D00         MOV     R5,#0x0
   \   0000AB   12....       LCALL   ?Subroutine3 & 0xFFFF
    453          
    454              // return unprocessed events
    455              return (events ^ AXD_SEND_MSG_EVT);
   \                     ??CrossCallReturnLabel_8:
   \   0000AE   7401         MOV     A,#0x1
   \   0000B0   6E           XRL     A,R6
   \   0000B1   FA           MOV     R2,A
   \   0000B2   EF           MOV     A,R7
   \   0000B3   80EA         SJMP    ??AXD_ProcessEvent_10
    456            }
    457              if ( events & ( ZB_USER_EVENTS ) )
   \                     ??AXD_ProcessEvent_12:
   \   0000B5   6003         JZ      ??AXD_ProcessEvent_13
    458            {
    459              // User events are passed to the application
    460              zb_HandleOsalEvent( events );
   \   0000B7                ; Setup parameters for call to function zb_HandleOsalEvent
   \   0000B7   12....       LCALL   ??zb_HandleOsalEvent?relay
    461          
    462              // Do not return here, return 0 later
    463            }
    464          
    465            // Discard unknown events
    466            return 0;
   \                     ??AXD_ProcessEvent_13:
   \   0000BA   7A00         MOV     R2,#0x0
   \   0000BC   7B00         MOV     R3,#0x0
   \                     ??AXD_ProcessEvent_11:
   \   0000BE                REQUIRE ?Subroutine5
   \   0000BE                ; // Fall through to label ?Subroutine5
    467          }

   \                                 In  segment BANKED_CODE, align 1, keep-with-next
   \                     ?Subroutine5:
   \   000000   7F04         MOV     R7,#0x4
   \   000002   02....       LJMP    ?BANKED_LEAVE_XDATA

   \                                 In  segment BANKED_CODE, align 1, keep-with-next
   \                     ?Subroutine3:
   \   000000   7A01         MOV     R2,#0x1
   \                     ??Subroutine3_0:
   \   000002   7B00         MOV     R3,#0x0
   \   000004   90....       MOV     DPTR,#AXD_TaskID
   \   000007   E0           MOVX    A,@DPTR
   \   000008   F9           MOV     R1,A
   \   000009   12....       LCALL   ??osal_start_timerEx?relay
   \   00000C   22           RET
    468          
    469          /*********************************************************************
    470           * Event Generation Functions
    471           */
    472          /*********************************************************************
    473           * @fn      AXD_ProcessZDOMsgs()
    474           *
    475           * @brief   Process response messages
    476           *
    477           * @param   none
    478           *
    479           * @return  none
    480           */

   \                                 In  segment BANKED_CODE, align 1, keep-with-next
    481          void AXD_ProcessZDOMsgs( zdoIncomingMsg_t *inMsg )
   \                     AXD_ProcessZDOMsgs:
    482          {
   \   000000   74F6         MOV     A,#-0xa
   \   000002   12....       LCALL   ?BANKED_ENTER_XDATA
   \   000005                ; Saved register size: 10
   \   000005                ; Auto size: 0
    483            switch ( inMsg->clusterID )
   \   000005   EA           MOV     A,R2
   \   000006   240C         ADD     A,#0xc
   \   000008   F582         MOV     DPL,A
   \   00000A   EB           MOV     A,R3
   \   00000B   3400         ADDC    A,#0x0
   \   00000D   F583         MOV     DPH,A
   \   00000F   12....       LCALL   ?Subroutine2 & 0xFFFF
   \                     ??CrossCallReturnLabel_5:
   \   000012   12....       LCALL   ?US_SWITCH_SPARSE
   \                     `?<Jumptable for AXD_ProcessZDOMsgs>_0`:
   \   000015   0000         DW        0
   \   000017   0200         DW        2
   \   000019   0680         DW        32774
   \   00001B   ....         DW        ??AXD_ProcessZDOMsgs_0
   \   00001D   2080         DW        32800
   \   00001F   ....         DW        ??AXD_ProcessZDOMsgs_1
   \   000021   ....         DW        ??AXD_ProcessZDOMsgs_2
    484            {
    485              case End_Device_Bind_rsp:
    486                if ( ZDO_ParseBindRsp( inMsg ) == ZSuccess )
   \                     ??AXD_ProcessZDOMsgs_1:
   \   000023   EA           MOV     A,R2
   \   000024   2411         ADD     A,#0x11
   \   000026   F582         MOV     DPL,A
   \   000028   EB           MOV     A,R3
   \   000029   12....       LCALL   ?Subroutine4 & 0xFFFF
   \                     ??CrossCallReturnLabel_10:
   \   00002C   7009         JNZ     ??AXD_ProcessZDOMsgs_3
    487                {
    488                  // Light LED
    489                  HalLedSet( HAL_LED_4, HAL_LED_MODE_ON );
   \   00002E                ; Setup parameters for call to function HalLedSet
   \   00002E   7A01         MOV     R2,#0x1
   \                     ??AXD_ProcessZDOMsgs_4:
   \   000030   7908         MOV     R1,#0x8
   \   000032   12....       LCALL   ??HalLedSet?relay
   \   000035   8055         SJMP    ??AXD_ProcessZDOMsgs_2
    490                }
    491          #if defined(BLINK_LEDS)
    492                else
    493                {
    494                  // Flash LED to show failure
    495                  HalLedSet ( HAL_LED_4, HAL_LED_MODE_FLASH );
   \                     ??AXD_ProcessZDOMsgs_3:
   \   000037                ; Setup parameters for call to function HalLedSet
   \   000037   7A04         MOV     R2,#0x4
   \   000039   80F5         SJMP    ??AXD_ProcessZDOMsgs_4
    496                }
    497          #endif
    498                break;
    499          
    500              case Match_Desc_rsp:
    501                {
    502                  ZDO_ActiveEndpointRsp_t *pRsp = ZDO_ParseEPListRsp( inMsg );
   \                     ??AXD_ProcessZDOMsgs_0:
   \   00003B                ; Setup parameters for call to function ZDO_ParseEPListRsp
   \   00003B   12....       LCALL   ??ZDO_ParseEPListRsp?relay
   \   00003E   8A..         MOV     ?V0 + 0,R2
   \   000040   8B..         MOV     ?V0 + 1,R3
   \   000042   AE..         MOV     R6,?V0 + 0
   \   000044   AF..         MOV     R7,?V0 + 1
    503                  if ( pRsp )
   \   000046   EE           MOV     A,R6
   \   000047   7001         JNZ     ??AXD_ProcessZDOMsgs_5
   \   000049   EF           MOV     A,R7
   \                     ??AXD_ProcessZDOMsgs_5:
   \   00004A   6040         JZ      ??AXD_ProcessZDOMsgs_2
    504                  {
    505                    if ( pRsp->status == ZSuccess && pRsp->cnt )
   \   00004C   8E82         MOV     DPL,R6
   \   00004E   8F83         MOV     DPH,R7
   \   000050   E0           MOVX    A,@DPTR
   \   000051   7032         JNZ     ??AXD_ProcessZDOMsgs_6
   \   000053   A3           INC     DPTR
   \   000054   A3           INC     DPTR
   \   000055   A3           INC     DPTR
   \   000056   E0           MOVX    A,@DPTR
   \   000057   602C         JZ      ??AXD_ProcessZDOMsgs_6
    506                    {
    507                      AXD_DstAddr.addrMode = (afAddrMode_t)Addr16Bit;
   \   000059   7402         MOV     A,#0x2
   \   00005B   90....       MOV     DPTR,#(AXD_DstAddr + 2)
   \   00005E   F0           MOVX    @DPTR,A
    508                      AXD_DstAddr.addr.shortAddr = pRsp->nwkAddr;
   \   00005F   8E82         MOV     DPL,R6
   \   000061   8F83         MOV     DPH,R7
   \   000063   A3           INC     DPTR
   \   000064   E0           MOVX    A,@DPTR
   \   000065   F8           MOV     R0,A
   \   000066   A3           INC     DPTR
   \   000067   E0           MOVX    A,@DPTR
   \   000068   F9           MOV     R1,A
   \   000069   90....       MOV     DPTR,#AXD_DstAddr
   \   00006C   E8           MOV     A,R0
   \   00006D   F0           MOVX    @DPTR,A
   \   00006E   A3           INC     DPTR
   \   00006F   E9           MOV     A,R1
   \   000070   F0           MOVX    @DPTR,A
    509                      // Take the first endpoint, Can be changed to search through endpoints
    510                      AXD_DstAddr.endPoint = pRsp->epList[0];
   \   000071   8E82         MOV     DPL,R6
   \   000073   8F83         MOV     DPH,R7
   \   000075   A3           INC     DPTR
   \   000076   A3           INC     DPTR
   \   000077   A3           INC     DPTR
   \   000078   A3           INC     DPTR
   \   000079   E0           MOVX    A,@DPTR
   \   00007A   90....       MOV     DPTR,#(AXD_DstAddr + 3)
   \   00007D   F0           MOVX    @DPTR,A
    511          
    512                      // Light LED
    513                      HalLedSet( HAL_LED_4, HAL_LED_MODE_ON );
   \   00007E                ; Setup parameters for call to function HalLedSet
   \   00007E   7A01         MOV     R2,#0x1
   \   000080   7908         MOV     R1,#0x8
   \   000082   12....       LCALL   ??HalLedSet?relay
    514                    }
    515                    osal_mem_free( pRsp );
   \                     ??AXD_ProcessZDOMsgs_6:
   \   000085                ; Setup parameters for call to function osal_mem_free
   \   000085   EE           MOV     A,R6
   \   000086   FA           MOV     R2,A
   \   000087   EF           MOV     A,R7
   \   000088   FB           MOV     R3,A
   \   000089   12....       LCALL   ??osal_mem_free?relay
    516                  }
    517                }
    518                break;
    519            }
    520          }
   \                     ??AXD_ProcessZDOMsgs_2:
   \   00008C   02....       LJMP    ?Subroutine6 & 0xFFFF

   \                                 In  segment BANKED_CODE, align 1, keep-with-next
   \                     ?Subroutine6:
   \   000000   7F02         MOV     R7,#0x2
   \   000002   02....       LJMP    ?BANKED_LEAVE_XDATA

   \                                 In  segment BANKED_CODE, align 1, keep-with-next
   \                     ?Subroutine2:
   \   000000   E0           MOVX    A,@DPTR
   \   000001   F5..         MOV     ?V0 + 0,A
   \   000003   A3           INC     DPTR
   \   000004   E0           MOVX    A,@DPTR
   \   000005   F5..         MOV     ?V0 + 1,A
   \   000007   78..         MOV     R0,#?V0 + 0
   \   000009   22           RET

   \                                 In  segment BANKED_CODE, align 1, keep-with-next
   \                     ?Subroutine4:
   \   000000   3400         ADDC    A,#0x0
   \   000002   F583         MOV     DPH,A
   \   000004   E0           MOVX    A,@DPTR
   \   000005   F8           MOV     R0,A
   \   000006   A3           INC     DPTR
   \   000007   E0           MOVX    A,@DPTR
   \   000008   F583         MOV     DPH,A
   \   00000A   8882         MOV     DPL,R0
   \   00000C   E0           MOVX    A,@DPTR
   \   00000D   22           RET
    521          
    522          /*********************************************************************
    523           * @fn      AXD_HandleKeys
    524           *
    525           * @brief   Handles all key events for this device.
    526           *
    527           * @param   shift - true if in shift/alt.
    528           * @param   keys - bit field for key events. Valid entries:
    529           *                 HAL_KEY_SW_4
    530           *                 HAL_KEY_SW_3
    531           *                 HAL_KEY_SW_2
    532           *                 HAL_KEY_SW_1
    533           *
    534           * @return  none
    535           */

   \                                 In  segment BANKED_CODE, align 1, keep-with-next
    536          void AXD_HandleKeys( byte shift, byte keys )
   \                     AXD_HandleKeys:
    537          {
   \   000000   74F6         MOV     A,#-0xa
   \   000002   12....       LCALL   ?BANKED_ENTER_XDATA
   \   000005                ; Saved register size: 10
   \   000005                ; Auto size: 9
   \   000005   74F7         MOV     A,#-0x9
   \   000007   12....       LCALL   ?ALLOC_XSTACK8
   \   00000A   EA           MOV     A,R2
   \   00000B   FE           MOV     R6,A
    538            zAddrType_t dstAddr;
    539          
    540            // Shift is used to make each button/switch dual purpose.
    541            if ( shift )
   \   00000C   E9           MOV     A,R1
   \   00000D   6003         JZ      $+5
   \   00000F   02....       LJMP    ??AXD_HandleKeys_0 & 0xFFFF
    542            {
    543              if ( keys & HAL_KEY_SW_1 )
    544              {
    545              }
    546              if ( keys & HAL_KEY_SW_2 )
    547              {
    548              }
    549              if ( keys & HAL_KEY_SW_3 )
    550              {
    551              }
    552              if ( keys & HAL_KEY_SW_4 )
    553              {
    554              }
    555            }
    556            else
    557            {
    558              if ( keys & HAL_KEY_SW_1 )
    559              {
    560              }
    561          
    562              if ( keys & HAL_KEY_SW_2 )
   \   000012   EE           MOV     A,R6
   \   000013   A2E1         MOV     C,0xE0 /* A   */.1
   \   000015   506C         JNC     ??AXD_HandleKeys_1
    563              {
    564                HalLedSet ( HAL_LED_4, HAL_LED_MODE_OFF );
   \   000017                ; Setup parameters for call to function HalLedSet
   \   000017   7A00         MOV     R2,#0x0
   \   000019   7908         MOV     R1,#0x8
   \   00001B   12....       LCALL   ??HalLedSet?relay
    565          
    566                // Initiate an End Device Bind Request for the mandatory endpoint
    567                dstAddr.addrMode = Addr16Bit;
   \   00001E   7408         MOV     A,#0x8
   \   000020   12....       LCALL   ?XSTACK_DISP0_8
   \   000023   7402         MOV     A,#0x2
   \   000025   12....       LCALL   ?Subroutine1 & 0xFFFF
    568                dstAddr.addr.shortAddr = 0x0000; // Coordinator
   \                     ??CrossCallReturnLabel_3:
   \   000028   E4           CLR     A
   \   000029   F0           MOVX    @DPTR,A
   \   00002A   A3           INC     DPTR
   \   00002B   F0           MOVX    @DPTR,A
    569                ZDP_EndDeviceBindReq( &dstAddr, NLME_GetShortAddr(),
    570                                      AXD_epDesc.endPoint,
    571                                      AXD_PROFID,
    572                                      AXD_MAX_CLUSTERS, (cId_t *)AXD_ClusterList,
    573                                      AXD_MAX_CLUSTERS, (cId_t *)AXD_ClusterList,
    574                                      FALSE );
   \   00002C                ; Setup parameters for call to function NLME_GetShortAddr
   \   00002C   12....       LCALL   ??NLME_GetShortAddr?relay
   \   00002F   8A..         MOV     ?V0 + 0,R2
   \   000031   8B..         MOV     ?V0 + 1,R3
   \   000033   AC..         MOV     R4,?V0 + 0
   \   000035   AD..         MOV     R5,?V0 + 1
   \   000037                ; Setup parameters for call to function ZDP_EndDeviceBindReq
   \   000037   75..00       MOV     ?V0 + 0,#0x0
   \   00003A   78..         MOV     R0,#?V0 + 0
   \   00003C   12....       LCALL   ?PUSH_XSTACK_I_ONE
   \   00003F   75....       MOV     ?V0 + 0,#(AXD_ClusterList & 0xff)
   \   000042   75....       MOV     ?V0 + 1,#((AXD_ClusterList >> 8) & 0xff)
   \   000045   78..         MOV     R0,#?V0 + 0
   \   000047   12....       LCALL   ?PUSH_XSTACK_I_TWO
   \   00004A   75..03       MOV     ?V0 + 0,#0x3
   \   00004D   78..         MOV     R0,#?V0 + 0
   \   00004F   12....       LCALL   ?PUSH_XSTACK_I_ONE
   \   000052   75....       MOV     ?V0 + 0,#(AXD_ClusterList & 0xff)
   \   000055   78..         MOV     R0,#?V0 + 0
   \   000057   12....       LCALL   ?PUSH_XSTACK_I_TWO
   \   00005A   75..03       MOV     ?V0 + 0,#0x3
   \   00005D   78..         MOV     R0,#?V0 + 0
   \   00005F   12....       LCALL   ?PUSH_XSTACK_I_ONE
   \   000062   75..04       MOV     ?V0 + 0,#0x4
   \   000065   75..0F       MOV     ?V0 + 1,#0xf
   \   000068   78..         MOV     R0,#?V0 + 0
   \   00006A   12....       LCALL   ?PUSH_XSTACK_I_TWO
   \   00006D   90....       MOV     DPTR,#AXD_epDesc
   \   000070   E0           MOVX    A,@DPTR
   \   000071   F9           MOV     R1,A
   \   000072   7409         MOV     A,#0x9
   \   000074   12....       LCALL   ?XSTACK_DISP0_8
   \   000077   AA82         MOV     R2,DPL
   \   000079   AB83         MOV     R3,DPH
   \   00007B   12....       LCALL   ??ZDP_EndDeviceBindReq?relay
   \   00007E   7409         MOV     A,#0x9
   \   000080   12....       LCALL   ?DEALLOC_XSTACK8
    575              }
    576          
    577              if ( keys & HAL_KEY_SW_3 )
    578              {
    579              }
    580          
    581              if ( keys & HAL_KEY_SW_4 )
   \                     ??AXD_HandleKeys_1:
   \   000083   EE           MOV     A,R6
   \   000084   A2E3         MOV     C,0xE0 /* A   */.3
   \   000086   505B         JNC     ??AXD_HandleKeys_0
    582              {
    583                HalLedSet ( HAL_LED_4, HAL_LED_MODE_OFF );
   \   000088                ; Setup parameters for call to function HalLedSet
   \   000088   7A00         MOV     R2,#0x0
   \   00008A   7908         MOV     R1,#0x8
   \   00008C   12....       LCALL   ??HalLedSet?relay
    584          
    585                // Initiate a Match Description Request (Service Discovery)
    586          #ifdef AXD_COR
    587                dstAddr.addrMode = AddrBroadcast;
   \   00008F   7408         MOV     A,#0x8
   \   000091   12....       LCALL   ?XSTACK_DISP0_8
   \   000094   740F         MOV     A,#0xf
   \   000096   12....       LCALL   ?Subroutine1 & 0xFFFF
    588                dstAddr.addr.shortAddr = NWK_BROADCAST_SHORTADDR;
   \                     ??CrossCallReturnLabel_4:
   \   000099   74FF         MOV     A,#-0x1
   \   00009B   F0           MOVX    @DPTR,A
   \   00009C   A3           INC     DPTR
   \   00009D   F0           MOVX    @DPTR,A
    589                ZDP_MatchDescReq( &dstAddr, NWK_BROADCAST_SHORTADDR,
    590                                  AXD_PROFID,
    591                                  AXD_MAX_CLUSTERS, (cId_t *)AXD_ClusterList,
    592                                  AXD_MAX_CLUSTERS, (cId_t *)AXD_ClusterList,
    593                                  FALSE );
   \   00009E                ; Setup parameters for call to function ZDP_MatchDescReq
   \   00009E   75..00       MOV     ?V0 + 0,#0x0
   \   0000A1   78..         MOV     R0,#?V0 + 0
   \   0000A3   12....       LCALL   ?PUSH_XSTACK_I_ONE
   \   0000A6   75....       MOV     ?V0 + 0,#(AXD_ClusterList & 0xff)
   \   0000A9   75....       MOV     ?V0 + 1,#((AXD_ClusterList >> 8) & 0xff)
   \   0000AC   78..         MOV     R0,#?V0 + 0
   \   0000AE   12....       LCALL   ?PUSH_XSTACK_I_TWO
   \   0000B1   75..03       MOV     ?V0 + 0,#0x3
   \   0000B4   78..         MOV     R0,#?V0 + 0
   \   0000B6   12....       LCALL   ?PUSH_XSTACK_I_ONE
   \   0000B9   75....       MOV     ?V0 + 0,#(AXD_ClusterList & 0xff)
   \   0000BC   78..         MOV     R0,#?V0 + 0
   \   0000BE   12....       LCALL   ?PUSH_XSTACK_I_TWO
   \   0000C1   75..04       MOV     ?V0 + 0,#0x4
   \   0000C4   75..0F       MOV     ?V0 + 1,#0xf
   \   0000C7   78..         MOV     R0,#?V0 + 0
   \   0000C9   12....       LCALL   ?PUSH_XSTACK_I_TWO
   \   0000CC   7903         MOV     R1,#0x3
   \   0000CE   7CFF         MOV     R4,#-0x1
   \   0000D0   7DFF         MOV     R5,#-0x1
   \   0000D2   7408         MOV     A,#0x8
   \   0000D4   12....       LCALL   ?XSTACK_DISP0_8
   \   0000D7   AA82         MOV     R2,DPL
   \   0000D9   AB83         MOV     R3,DPH
   \   0000DB   12....       LCALL   ??ZDP_MatchDescReq?relay
   \   0000DE   7408         MOV     A,#0x8
   \   0000E0   12....       LCALL   ?DEALLOC_XSTACK8
    594          #else
    595                dstAddr.addrMode = Addr16Bit;
    596                dstAddr.addr.shortAddr = 0x0000;
    597                ZDP_MatchDescReq( &dstAddr, NWK_BROADCAST_SHORTADDR,
    598                                  AXD_PROFID,
    599                                  AXD_MAX_CLUSTERS, (cId_t *)AXD_ClusterList,
    600                                  AXD_MAX_CLUSTERS, (cId_t *)AXD_ClusterList,
    601                                  FALSE );
    602          #endif
    603              }
    604            }
    605          }
   \                     ??AXD_HandleKeys_0:
   \   0000E3   7409         MOV     A,#0x9
   \   0000E5   12....       LCALL   ?DEALLOC_XSTACK8
   \   0000E8   02....       LJMP    ?Subroutine6 & 0xFFFF
    606          
    607          /*********************************************************************
    608           * LOCAL FUNCTIONS
    609           */
    610          
    611          /*********************************************************************
    612           * @fn      AXD_MessageMSGCB
    613           *
    614           * @brief   Data message processor callback.  This function processes
    615           *          any incoming data - probably from other devices.  So, based
    616           *          on cluster ID, perform the intended action.
    617           *
    618           * @param   none
    619           *
    620           * @return  none
    621           */

   \                                 In  segment BANKED_CODE, align 1, keep-with-next
    622          void AXD_MessageMSGCB( afIncomingMSGPacket_t *pkt )
   \                     AXD_MessageMSGCB:
    623          {
   \   000000   74F6         MOV     A,#-0xa
   \   000002   12....       LCALL   ?BANKED_ENTER_XDATA
   \   000005                ; Saved register size: 10
   \   000005                ; Auto size: 0
   \   000005   EA           MOV     A,R2
   \   000006   FE           MOV     R6,A
   \   000007   EB           MOV     A,R3
   \   000008   FF           MOV     R7,A
    624            
    625            switch ( pkt->clusterId )
   \   000009   8E82         MOV     DPL,R6
   \   00000B   8F83         MOV     DPH,R7
   \   00000D   A3           INC     DPTR
   \   00000E   A3           INC     DPTR
   \   00000F   A3           INC     DPTR
   \   000010   A3           INC     DPTR
   \   000011   12....       LCALL   ?Subroutine2 & 0xFFFF
   \                     ??CrossCallReturnLabel_6:
   \   000014   12....       LCALL   ?US_SWITCH_DENSE
   \                     `?<Jumptable for AXD_MessageMSGCB>_0`:
   \   000017   0100         DW        1
   \   000019   02           DB        2
   \   00001A   ....         DW        ??AXD_MessageMSGCB_0
   \   00001C   ....         DW        ??AXD_MessageMSGCB_1
   \   00001E   ....         DW        ??AXD_MessageMSGCB_2
   \   000020   ....         DW        ??AXD_MessageMSGCB_3
    626            {
    627              case AXD_CMD_ID:
    628                displayXYZ(pkt->cmd.Data);
   \                     ??AXD_MessageMSGCB_1:
   \   000022   EE           MOV     A,R6
   \   000023   2415         ADD     A,#0x15
   \   000025   F5..         MOV     ?V0 + 0,A
   \   000027   EF           MOV     A,R7
   \   000028   3400         ADDC    A,#0x0
   \   00002A   F5..         MOV     ?V0 + 1,A
   \   00002C                ; Setup parameters for call to function displayXYZ
   \   00002C   85..82       MOV     DPL,?V0 + 0
   \   00002F   F583         MOV     DPH,A
   \   000031   E0           MOVX    A,@DPTR
   \   000032   FA           MOV     R2,A
   \   000033   A3           INC     DPTR
   \   000034   E0           MOVX    A,@DPTR
   \   000035   FB           MOV     R3,A
   \   000036   12....       LCALL   ??displayXYZ?relay
    629                //HalLcdWriteStringValue("R: ",source,10,3);
    630                HalUARTWrite( SERIAL_APP_PORT, pkt->cmd.Data,pkt->cmd.DataLength);
   \   000039                ; Setup parameters for call to function HalUARTWrite
   \   000039   EE           MOV     A,R6
   \   00003A   2413         ADD     A,#0x13
   \   00003C   F582         MOV     DPL,A
   \   00003E   EF           MOV     A,R7
   \   00003F   3400         ADDC    A,#0x0
   \   000041   F583         MOV     DPH,A
   \   000043   E0           MOVX    A,@DPTR
   \   000044   FC           MOV     R4,A
   \   000045   A3           INC     DPTR
   \   000046   E0           MOVX    A,@DPTR
   \   000047   FD           MOV     R5,A
   \   000048   85..82       MOV     DPL,?V0 + 0
   \   00004B   85..83       MOV     DPH,?V0 + 1
   \   00004E   E0           MOVX    A,@DPTR
   \   00004F   FA           MOV     R2,A
   \   000050   A3           INC     DPTR
   \   000051   E0           MOVX    A,@DPTR
   \   000052   FB           MOV     R3,A
   \   000053   7900         MOV     R1,#0x0
   \   000055   12....       LCALL   ??HalUARTWrite?relay
   \   000058   8028         SJMP    ??AXD_MessageMSGCB_0
    631              break;
    632            case AXD_TEST_CMD_ID:
    633              HalLcdWriteStringValue("R: ",*(pkt->cmd.Data),10,4);
   \                     ??AXD_MessageMSGCB_2:
   \   00005A                ; Setup parameters for call to function HalLcdWriteStringValue
   \   00005A   75..04       MOV     ?V0 + 0,#0x4
   \   00005D   78..         MOV     R0,#?V0 + 0
   \   00005F   12....       LCALL   ?PUSH_XSTACK_I_ONE
   \   000062   12....       LCALL   ?Subroutine0 & 0xFFFF
   \                     ??CrossCallReturnLabel_0:
   \   000065   7A..         MOV     R2,#(`?<Constant "R: ">` & 0xff)
   \   000067   7B..         MOV     R3,#((`?<Constant "R: ">` >> 8) & 0xff)
   \   000069   800F         SJMP    ??AXD_MessageMSGCB_4
    634              break;
    635            case AXD_TEST2_CMD_ID:
    636              HalLcdWriteStringValue("Q: ",*(pkt->cmd.Data),10,3);
   \                     ??AXD_MessageMSGCB_3:
   \   00006B                ; Setup parameters for call to function HalLcdWriteStringValue
   \   00006B   75..03       MOV     ?V0 + 0,#0x3
   \   00006E   78..         MOV     R0,#?V0 + 0
   \   000070   12....       LCALL   ?PUSH_XSTACK_I_ONE
   \   000073   12....       LCALL   ?Subroutine0 & 0xFFFF
   \                     ??CrossCallReturnLabel_1:
   \   000076   7A..         MOV     R2,#(`?<Constant "Q: ">` & 0xff)
   \   000078   7B..         MOV     R3,#((`?<Constant "Q: ">` >> 8) & 0xff)
   \                     ??AXD_MessageMSGCB_4:
   \   00007A   12....       LCALL   ??HalLcdWriteStringValue?relay
   \   00007D   7401         MOV     A,#0x1
   \   00007F   12....       LCALL   ?DEALLOC_XSTACK8
    637              break;
    638            default: break;
    639            } 
    640            
    641          }
   \                     ??AXD_MessageMSGCB_0:
   \   000082                REQUIRE ?Subroutine6
   \   000082                ; // Fall through to label ?Subroutine6

   \                                 In  segment BANKED_CODE, align 1, keep-with-next
   \                     ?Subroutine0:
   \   000000   790A         MOV     R1,#0xa
   \   000002   EE           MOV     A,R6
   \   000003   2415         ADD     A,#0x15
   \   000005   F582         MOV     DPL,A
   \   000007   EF           MOV     A,R7
   \   000008   12....       LCALL   ?Subroutine4 & 0xFFFF
   \                     ??CrossCallReturnLabel_11:
   \   00000B   FC           MOV     R4,A
   \   00000C   7D00         MOV     R5,#0x0
   \   00000E   22           RET
    642          
    643          /*********************************************************************
    644           * @fn      AXD_SendTheMessage
    645           *
    646           * @brief   Send "the" message.
    647           *
    648           * @param   none
    649           *
    650           * @return  none
    651           */

   \                                 In  segment BANKED_CODE, align 1, keep-with-next
    652          void AXD_SendTheMessage( void )
   \                     AXD_SendTheMessage:
    653          {
   \   000000                ; Saved register size: 0
   \   000000                ; Auto size: 0
    654            //zAddrType_t dstAddr;
    655          #ifdef AXD_END
    656          
    657            Multiple_Read_ADXL345();
    658            conversion();
    659          //  displayXYZ((uint8 *)BUFFER);
    660            BUFFER[3] = myApp_ReadTemperature();
    661            BUFFER[2] = BUFFER[3] % 10 + '0';
    662            BUFFER[3] = BUFFER[3] / 10 + '0';
    663            BUFFER[5] = myApp_ReadTemperature();
    664            BUFFER[4] = BUFFER[5] % 10 + '0';
    665            BUFFER[5] = BUFFER[5] / 10 + '0';
    666            
    667            if ( AF_DataRequest( &AXD_DstAddr, &AXD_epDesc,
    668                                 AXD_CMD_ID,
    669                                 (byte)(sizeof(BUFFER)),
    670                                 (byte *)(BUFFER),
    671                                 &AXD_TransID,
    672                                 AF_DISCV_ROUTE, AF_DEFAULT_RADIUS ) == afStatus_SUCCESS )
    673            {
    674              aps_RemoveGroup(AXD_ENDPOINT,AXD_GROUP);
    675              // Successfully requested to be sent.
    676              
    677            }
    678            else
    679            {
    680              // Error occurred in request to send.
    681            }
    682          #endif
    683          #ifdef AXD_ROUTER
    684            if ( AF_DataRequest( &AXD_DstAddr, &AXD_epDesc,
    685                                 AXD_TEST_CMD_ID,
    686                                 (byte)(sizeof(test2)),
    687                                 (byte *)(&test2),
    688                                 &AXD_TransID,
    689                                 AF_SKIP_ROUTING, AF_DEFAULT_RADIUS ) == afStatus_SUCCESS )
    690            {
    691              // Successfully requested to be sent.
    692          
    693            }
    694            else
    695            {
    696              // Error occurred in request to send.
    697            }
    698            
    699          #endif
    700          #ifdef AXD_END2
    701            if ( AF_DataRequest( &AXD_DstAddr, &AXD_epDesc,
    702                                 AXD_TEST2_CMD_ID,
    703                                 (byte)(sizeof(test2)),
    704                                 (byte *)(&test2),
    705                                 &AXD_TransID,
    706                                 AF_SKIP_ROUTING, AF_DEFAULT_RADIUS ) == afStatus_SUCCESS )
    707            {
    708              // Successfully requested to be sent.
    709          
    710            }
    711            else
    712            {
    713              // Error occurred in request to send.
    714            }
    715            
    716          #endif
    717          }
   \   000000   02....       LJMP    ?BRET
    718          
    719          /*********************************************************************
    720          *********************************************************************/

   \                                 In  segment BANKED_CODE, align 1, keep-with-next
    721          void AXD_ReceiveDataIndication( uint16 source, uint16 command, uint16 len, uint8 *pData  )
   \                     AXD_ReceiveDataIndication:
    722          {
   \   000000   74F4         MOV     A,#-0xc
   \   000002   12....       LCALL   ?BANKED_ENTER_XDATA
   \   000005                ; Saved register size: 12
   \   000005                ; Auto size: 0
   \   000005   740C         MOV     A,#0xc
   \   000007   12....       LCALL   ?XSTACK_DISP0_8
   \   00000A   E0           MOVX    A,@DPTR
   \   00000B   F5..         MOV     ?V0 + 0,A
   \   00000D   A3           INC     DPTR
   \   00000E   E0           MOVX    A,@DPTR
   \   00000F   F5..         MOV     ?V0 + 1,A
   \   000011   740E         MOV     A,#0xe
   \   000013   12....       LCALL   ?XSTACK_DISP0_8
   \   000016   E0           MOVX    A,@DPTR
   \   000017   F5..         MOV     ?V0 + 2,A
   \   000019   A3           INC     DPTR
   \   00001A   E0           MOVX    A,@DPTR
   \   00001B   F5..         MOV     ?V0 + 3,A
    723          #if defined ( MT_SAPI_CB_FUNC )
    724            /* First check if MT has subscribed for this callback. If so , pass it as
    725            a event to MonitorTest and return control to calling function after that */
    726            if ( SAPICB_CHECK( SPI_CB_SAPI_RCV_DATA_IND ) )
    727            {
    728              zb_MTCallbackReceiveDataIndication( source, command, len, pData  );
    729            }
    730            else
    731          #endif  //MT_SAPI_CB_FUNC
    732            {
    733              zb_ReceiveDataIndication( source, command, len, pData  );
   \   00001D                ; Setup parameters for call to function zb_ReceiveDataIndication
   \   00001D   78..         MOV     R0,#?V0 + 2
   \   00001F   12....       LCALL   ?PUSH_XSTACK_I_TWO
   \   000022   78..         MOV     R0,#?V0 + 0
   \   000024   12....       LCALL   ?PUSH_XSTACK_I_TWO
   \   000027   12....       LCALL   ??zb_ReceiveDataIndication?relay
   \   00002A   7404         MOV     A,#0x4
   \   00002C   12....       LCALL   ?DEALLOC_XSTACK8
    734            }
    735          }
   \   00002F   02....       LJMP    ?Subroutine5 & 0xFFFF
    736          
    737          #if SERIAL_APP_LOOPBACK
    738          /*********************************************************************
    739           * @fn      rxCB_Loopback
    740           *
    741           * @brief   Process UART Rx event handling.
    742           *          May be triggered by an Rx timer expiration - less than max
    743           *          Rx bytes have arrived within the Rx max age time.
    744           *          May be set by failure to alloc max Rx byte-buffer for the DMA Rx -
    745           *          system resources are too low, so set flow control?
    746           *
    747           * @param   none
    748           *
    749           * @return  none
    750           */

   \                                 In  segment BANKED_CODE, align 1, keep-with-next
    751          static void rxCB_Loopback( uint8 port, uint8 event )
   \                     rxCB_Loopback:
    752          {
   \   000000   74F6         MOV     A,#-0xa
   \   000002   12....       LCALL   ?BANKED_ENTER_XDATA
   \   000005                ; Saved register size: 10
   \   000005                ; Auto size: 0
   \   000005   E9           MOV     A,R1
   \   000006   FE           MOV     R6,A
    753          
    754            if ( rxLen )
   \   000007   90....       MOV     DPTR,#rxLen
   \   00000A   E0           MOVX    A,@DPTR
   \   00000B   6029         JZ      ??rxCB_Loopback_0
    755            {
    756              if ( !HalUARTWrite( SERIAL_APP_PORT, rxBuf, rxLen ) )
   \   00000D                ; Setup parameters for call to function HalUARTWrite
   \   00000D   FC           MOV     R4,A
   \   00000E   7D00         MOV     R5,#0x0
   \   000010   7A..         MOV     R2,#(rxBuf & 0xff)
   \   000012   7B..         MOV     R3,#((rxBuf >> 8) & 0xff)
   \   000014   7900         MOV     R1,#0x0
   \   000016   12....       LCALL   ??HalUARTWrite?relay
   \   000019   EA           MOV     A,R2
   \   00001A   7001         JNZ     ??rxCB_Loopback_1
   \   00001C   EB           MOV     A,R3
   \                     ??rxCB_Loopback_1:
   \   00001D   700B         JNZ     ??rxCB_Loopback_2
    757              {
    758                osal_start_timerEx( AXD_TaskID, SERIALAPP_TX_RTRY_EVT,
    759                                                      SERIALAPP_TX_RTRY_TIMEOUT );
   \                     ??rxCB_Loopback_3:
   \   00001F                ; Setup parameters for call to function osal_start_timerEx
   \   00001F   7CFA         MOV     R4,#-0x6
   \   000021   7D00         MOV     R5,#0x0
   \   000023   7A10         MOV     R2,#0x10
   \   000025   12....       LCALL   ??Subroutine3_0 & 0xFFFF
    760                return;
   \                     ??CrossCallReturnLabel_9:
   \   000028   8037         SJMP    ??rxCB_Loopback_4
    761              }
    762              else
    763              {
    764                osal_stop_timerEx( AXD_TaskID, SERIALAPP_TX_RTRY_EVT );
   \                     ??rxCB_Loopback_2:
   \   00002A                ; Setup parameters for call to function osal_stop_timerEx
   \   00002A   7A10         MOV     R2,#0x10
   \   00002C   7B00         MOV     R3,#0x0
   \   00002E   90....       MOV     DPTR,#AXD_TaskID
   \   000031   E0           MOVX    A,@DPTR
   \   000032   F9           MOV     R1,A
   \   000033   12....       LCALL   ??osal_stop_timerEx?relay
    765              }
    766            }
    767          
    768            // HAL UART Manager will turn flow control back on if it can after read.
    769            if ( !(rxLen = HalUARTRead( port, rxBuf, SERIAL_APP_RX_CNT )) )
   \                     ??rxCB_Loopback_0:
   \   000036                ; Setup parameters for call to function HalUARTRead
   \   000036   7C50         MOV     R4,#0x50
   \   000038   7D00         MOV     R5,#0x0
   \   00003A   7A..         MOV     R2,#(rxBuf & 0xff)
   \   00003C   7B..         MOV     R3,#((rxBuf >> 8) & 0xff)
   \   00003E   EE           MOV     A,R6
   \   00003F   F9           MOV     R1,A
   \   000040   12....       LCALL   ??HalUARTRead?relay
   \   000043   EA           MOV     A,R2
   \   000044   90....       MOV     DPTR,#rxLen
   \   000047   F0           MOVX    @DPTR,A
   \   000048   6017         JZ      ??rxCB_Loopback_4
    770            {
    771              return;
    772            }
    773          
    774            if ( HalUARTWrite( SERIAL_APP_PORT, rxBuf, rxLen ) )
   \   00004A                ; Setup parameters for call to function HalUARTWrite
   \   00004A   FC           MOV     R4,A
   \   00004B   7D00         MOV     R5,#0x0
   \   00004D   7A..         MOV     R2,#(rxBuf & 0xff)
   \   00004F   7B..         MOV     R3,#((rxBuf >> 8) & 0xff)
   \   000051   7900         MOV     R1,#0x0
   \   000053   12....       LCALL   ??HalUARTWrite?relay
   \   000056   EA           MOV     A,R2
   \   000057   7001         JNZ     ??rxCB_Loopback_5
   \   000059   EB           MOV     A,R3
   \                     ??rxCB_Loopback_5:
   \   00005A   60C3         JZ      ??rxCB_Loopback_3
    775            {
    776              rxLen = 0;
   \   00005C   E4           CLR     A
   \   00005D   90....       MOV     DPTR,#rxLen
   \   000060   F0           MOVX    @DPTR,A
   \                     ??rxCB_Loopback_4:
   \   000061   02....       LJMP    ?Subroutine6 & 0xFFFF
    777            }
    778            else
    779            {
    780              osal_start_timerEx( AXD_TaskID, SERIALAPP_TX_RTRY_EVT,
    781                                                    SERIALAPP_TX_RTRY_TIMEOUT );
    782            }
    783          }
    784          
    785          #else
    786          
    787          /*********************************************************************
    788           * @fn      rxCB
    789           *
    790           * @brief   Process UART Rx event handling.
    791           *          May be triggered by an Rx timer expiration - less than max
    792           *          Rx bytes have arrived within the Rx max age time.
    793           *          May be set by failure to alloc max Rx byte-buffer for the DMA Rx -
    794           *          system resources are too low, so set flow control?
    795           *
    796           * @param   none
    797           *
    798           * @return  none
    799           */
    800          static void rxCB( uint8 port, uint8 event )
    801          {
    802            uint8 *buf, len;
    803          
    804            /* While awaiting retries/response, only buffer 1 next buffer: otaBuf2.
    805             * If allow the DMA Rx to continue to run, allocating Rx buffers, the heap
    806             * will become so depleted that an incoming OTA response cannot be received.
    807             * When the Rx data available is not read, the DMA Rx Machine automatically
    808             * sets flow control off - it is automatically re-enabled upon Rx data read.
    809             * When the back-logged otaBuf2 is sent OTA, an Rx data read is scheduled.
    810             */
    811            if ( otaBuf2 )
    812            {
    813              return;
    814            }
    815          
    816            if ( !(buf = osal_mem_alloc( SERIAL_APP_RX_CNT )) )
    817            {
    818              return;
    819            }
    820          
    821            /* HAL UART Manager will turn flow control back on if it can after read.
    822             * Reserve 1 byte for the 'sequence number'.
    823             */
    824            len = HalUARTRead( port, buf+1, SERIAL_APP_RX_CNT-1 );
    825          
    826            if ( !len )  // Length is not expected to ever be zero.
    827            {
    828              osal_mem_free( buf );
    829              return;
    830            }
    831          
    832            /* If the local global otaBuf is in use, then either the response handshake
    833             * is being awaited or retries are being attempted. When the wait/retries
    834             * process has been exhausted, the next OTA msg will be attempted from
    835             * otaBuf2, if it is not NULL.
    836             */
    837            if ( otaBuf )
    838            {
    839              otaBuf2 = buf;
    840              otaLen2 = len;
    841            }
    842            else
    843            {
    844              otaBuf = buf;
    845              otaLen = len;
    846              /* Don't call SerialApp_SendData() from here in the callback function.
    847               * Set the event so SerialApp_SendData() runs during this task's time slot.
    848               */
    849              osal_set_event( SerialApp_TaskID, SERIALAPP_MSG_SEND_EVT );
    850            }
    851          }
    852          #endif
    853          
    854          /*********************************************************************
    855          *********************************************************************/

   \                                 In  segment BANKED_CODE, align 1, keep-with-next
    856          uint8 myApp_ReadTemperature( void )
   \                     myApp_ReadTemperature:
    857          {
   \   000000   74F0         MOV     A,#-0x10
   \   000002   12....       LCALL   ?BANKED_ENTER_XDATA
   \   000005                ; Saved register size: 16
   \   000005                ; Auto size: 0
    858          
    859            uint16 value;
    860          
    861            /* Clear ADC interrupt flag */
    862            ADCIF = 0;
   \   000005   C28D         CLR     0x88.5
    863          
    864            ADCCON3 = (HAL_ADC_REF_125V | HAL_ADC_DEC_512 | HAL_ADC_CHN_TEMP);
   \   000007   75B63E       MOV     0xb6,#0x3e
    865          
    866            /* Wait for the conversion to finish */
    867            while ( !ADCIF );
   \                     ??myApp_ReadTemperature_0:
   \   00000A   A28D         MOV     C,0x88.5
   \   00000C   50FC         JNC     ??myApp_ReadTemperature_0
    868          
    869            /* Get the result */
    870            value = ADCL;
   \   00000E   AABA         MOV     R2,0xba
   \   000010   8A82         MOV     DPL,R2
   \   000012   A882         MOV     R0,DPL
    871            value |= ((uint16) ADCH) << 8;
   \   000014   E5BB         MOV     A,0xbb
   \   000016   FA           MOV     R2,A
   \   000017   E4           CLR     A
   \   000018   CA           XCH     A,R2
   \   000019   F9           MOV     R1,A
    872          
    873            /*
    874             * value ranges from 0 to 0x8000 indicating 0V and 1.25V
    875             * VOLTAGE_AT_TEMP_ZERO = 0.743 V = 19477
    876             * TEMP_COEFFICIENT = 0.0024 V/C = 62.9 /C
    877             * These parameters are typical values and need to be calibrated
    878             * See the datasheet for the appropriate chip for more details
    879             * also, the math below may not be very accurate
    880             */
    881          #define VOLTAGE_AT_TEMP_ZERO      19477   // 0.743 V
    882          #define TEMP_COEFFICIENT          62.9    // 0.0024 V/C
    883          
    884            // limit min temp to 0 C
    885            if ( value < VOLTAGE_AT_TEMP_ZERO )
   \   00001A   C3           CLR     C
   \   00001B   E8           MOV     A,R0
   \   00001C   9415         SUBB    A,#0x15
   \   00001E   E9           MOV     A,R1
   \   00001F   944C         SUBB    A,#0x4c
   \   000021   5004         JNC     ??myApp_ReadTemperature_1
    886              value = VOLTAGE_AT_TEMP_ZERO;
   \   000023   7815         MOV     R0,#0x15
   \   000025   794C         MOV     R1,#0x4c
    887          
    888            value = value - VOLTAGE_AT_TEMP_ZERO;
   \                     ??myApp_ReadTemperature_1:
   \   000027   E8           MOV     A,R0
   \   000028   24EB         ADD     A,#-0x15
   \   00002A   F8           MOV     R0,A
   \   00002B   E9           MOV     A,R1
   \   00002C   34B3         ADDC    A,#-0x4d
   \   00002E   F9           MOV     R1,A
    889          
    890            // limit max temp to 99 C
    891            if ( value > TEMP_COEFFICIENT * 99 )
   \   00002F   C3           CLR     C
   \   000030   E8           MOV     A,R0
   \   000031   9454         SUBB    A,#0x54
   \   000033   E9           MOV     A,R1
   \   000034   9418         SUBB    A,#0x18
   \   000036   4004         JC      ??myApp_ReadTemperature_2
    892              value = TEMP_COEFFICIENT * 99;
   \   000038   7853         MOV     R0,#0x53
   \   00003A   7918         MOV     R1,#0x18
    893          
    894            return ( (uint8)(value/TEMP_COEFFICIENT) );
   \                     ??myApp_ReadTemperature_2:
   \   00003C   88..         MOV     ?V0 + 0,R0
   \   00003E   89..         MOV     ?V0 + 1,R1
   \   000040   8A..         MOV     ?V0 + 2,R2
   \   000042   8A..         MOV     ?V0 + 3,R2
   \   000044   78..         MOV     R0,#?V0 + 0
   \   000046   12....       LCALL   ?UL_TO_FLT
   \   000049   90....       MOV     DPTR,#__Constant_427b999a
   \   00004C   78..         MOV     R0,#?V0 + 4
   \   00004E   12....       LCALL   ?L_MOV_X
   \   000051   78..         MOV     R0,#?V0 + 0
   \   000053   79..         MOV     R1,#?V0 + 4
   \   000055   12....       LCALL   ?FLT_DIV
   \   000058   78..         MOV     R0,#?V0 + 0
   \   00005A   12....       LCALL   ?FLT_TO_L
   \   00005D   A9..         MOV     R1,?V0 + 0
   \   00005F   7F08         MOV     R7,#0x8
   \   000061   02....       LJMP    ?BANKED_LEAVE_XDATA
   \   000064                REQUIRE _A_TCON
   \   000064                REQUIRE ADCCON3
   \   000064                REQUIRE ADCL
   \   000064                REQUIRE ADCH
    895          }

   \                                 In  segment XDATA_ID, align 1, keep-with-next
   \                     `?<Initializer for <Constant "AXD">>`:
   \   000000   41584400     DB "AXD"

   \                                 In  segment XDATA_ID, align 1, keep-with-next
   \                     `?<Initializer for <Constant "R: ">>`:
   \   000000   523A2000     DB "R: "

   \                                 In  segment XDATA_ID, align 1, keep-with-next
   \                     `?<Initializer for <Constant "Q: ">>`:
   \   000000   513A2000     DB "Q: "

   \                                 In  segment XDATA_ID, align 1, keep-with-next
   \                     `?<Initializer for AXD_ClusterList>`:
   \   000000   01000200     DW 1, 2
   \   000004   0000         DB 0, 0

   \                                 In  segment XDATA_ID, align 1, keep-with-next
   \                     `?<Initializer for AXD_SimpleDesc>`:
   \   000000   0A           DB 10
   \   000001   040F0100     DW 3844, 1
   \   000005   0003         DB 0, 3
   \   000007   ....         DW AXD_ClusterList
   \   000009   03           DB 3
   \   00000A   ....         DW AXD_ClusterList

   \                                 In  segment XDATA_ID, align 1, keep-with-next
   \                     `?<Initializer for __Constant_427b999a>`:
   \   000000   9A997B42     DD 427B999AH

   \                                 In  segment BANK_RELAYS, align 1
   \                     ??AXD_Init?relay:
   \   000000   12....       LCALL   ?BDISPATCH
   \   000003   ......       DC24    AXD_Init

   \                                 In  segment BANK_RELAYS, align 1
   \                     ??AXD_ProcessEvent?relay:
   \   000000   12....       LCALL   ?BDISPATCH
   \   000003   ......       DC24    AXD_ProcessEvent

   \                                 In  segment BANK_RELAYS, align 1
   \                     ??AXD_ProcessZDOMsgs?relay:
   \   000000   12....       LCALL   ?BDISPATCH
   \   000003   ......       DC24    AXD_ProcessZDOMsgs

   \                                 In  segment BANK_RELAYS, align 1
   \                     ??AXD_HandleKeys?relay:
   \   000000   12....       LCALL   ?BDISPATCH
   \   000003   ......       DC24    AXD_HandleKeys

   \                                 In  segment BANK_RELAYS, align 1
   \                     ??AXD_MessageMSGCB?relay:
   \   000000   12....       LCALL   ?BDISPATCH
   \   000003   ......       DC24    AXD_MessageMSGCB

   \                                 In  segment BANK_RELAYS, align 1
   \                     ??AXD_SendTheMessage?relay:
   \   000000   12....       LCALL   ?BDISPATCH
   \   000003   ......       DC24    AXD_SendTheMessage

   \                                 In  segment BANK_RELAYS, align 1
   \                     ??AXD_ReceiveDataIndication?relay:
   \   000000   12....       LCALL   ?BDISPATCH
   \   000003   ......       DC24    AXD_ReceiveDataIndication

   \                                 In  segment BANK_RELAYS, align 1
   \                     ??rxCB_Loopback?relay:
   \   000000   12....       LCALL   ?BDISPATCH
   \   000003   ......       DC24    rxCB_Loopback

   \                                 In  segment BANK_RELAYS, align 1
   \                     ??myApp_ReadTemperature?relay:
   \   000000   12....       LCALL   ?BDISPATCH
   \   000003   ......       DC24    myApp_ReadTemperature

   \                                 In  segment XDATA_I, align 1, keep-with-next
   \                     `?<Constant "AXD">`:
   \   000000                DS 4
   \   000004                REQUIRE `?<Initializer for <Constant "AXD">>`
   \   000004                REQUIRE __INIT_XDATA_I

   \                                 In  segment XDATA_I, align 1, keep-with-next
   \                     `?<Constant "R: ">`:
   \   000000                DS 4
   \   000004                REQUIRE `?<Initializer for <Constant "R: ">>`
   \   000004                REQUIRE __INIT_XDATA_I

   \                                 In  segment XDATA_I, align 1, keep-with-next
   \                     `?<Constant "Q: ">`:
   \   000000                DS 4
   \   000004                REQUIRE `?<Initializer for <Constant "Q: ">>`
   \   000004                REQUIRE __INIT_XDATA_I

   \                                 In  segment XDATA_I, align 1, keep-with-next
   \                     __Constant_427b999a:
   \   000000                DS 4
   \   000004                REQUIRE `?<Initializer for __Constant_427b999a>`
   \   000004                REQUIRE __INIT_XDATA_I

   Maximum stack usage in bytes:

     Function                      ISTACK PSTACK XSTACK
     --------                      ------ ------ ------
     AXD_HandleKeys                    1      0     40
       -> HalLedSet                    0      0     38
       -> NLME_GetShortAddr            0      0     38
       -> ZDP_EndDeviceBindReq         0      0     56
       -> HalLedSet                    0      0     38
       -> ZDP_MatchDescReq             0      0     54
     AXD_Init                          3      0     29
       -> afRegister                   4      0     58
       -> RegisterForKeys              4      0     58
       -> HalUARTOpen                  4      0     58
       -> HalLcdWriteString            4      0     58
       -> ZDO_RegisterForZDOMsg        4      0     58
       -> ZDO_RegisterForZDOMsg        4      0     58
       -> aps_AddGroup                 4      0     58
     AXD_MessageMSGCB                  0      0     23
       -> displayXYZ                   0      0     20
       -> HalUARTWrite                 0      0     20
       -> HalLcdWriteStringValue       0      0     22
       -> HalLcdWriteStringValue       0      0     22
     AXD_ProcessEvent                  0      0     12
       -> osal_msg_receive             0      0     24
       -> osal_start_timerEx           0      0     24
       -> osal_msg_deallocate          0      0     24
       -> osal_msg_receive             0      0     24
       -> AXD_ProcessZDOMsgs           0      0     24
       -> AXD_HandleKeys               0      0     24
       -> AXD_MessageMSGCB             0      0     24
       -> osal_start_timerEx           0      0     24
       -> zb_HandleOsalEvent           0      0     24
     AXD_ProcessZDOMsgs                0      0     22
       -> HalLedSet                    0      0     20
       -> HalLedSet                    0      0     20
       -> ZDO_ParseEPListRsp           0      0     20
       -> HalLedSet                    0      0     20
       -> osal_mem_free                0      0     20
     AXD_ReceiveDataIndication         0      0     20
       -> zb_ReceiveDataIndication     0      0     32
     AXD_SendTheMessage                0      0      0
     myApp_ReadTemperature             0      0     16
     rxCB_Loopback                     0      0     10
       -> HalUARTWrite                 0      0     20
       -> osal_start_timerEx           0      0     20
       -> osal_stop_timerEx            0      0     20
       -> HalUARTRead                  0      0     20
       -> HalUARTWrite                 0      0     20


   Segment part sizes:

     Function/Label                 Bytes
     --------------                 -----
     _A_TCON                           1
     ADCCON3                           1
     ADCL                              1
     ADCH                              1
     AXD_Group                        18
     AXD_ClusterList                   6
     AXD_SimpleDesc                   12
     AXD_epDesc                        6
     test2                             2
     AXD_TaskID                        1
     AXD_NwkState                      1
     AXD_TransID                       1
     AXD_DstAddr                       4
     rxLen                             1
     rxBuf                            80
     AXD_Init                        243
     ?Subroutine1                      8
     AXD_ProcessEvent                190
     ?Subroutine5                      5
     ?Subroutine3                     13
     AXD_ProcessZDOMsgs              143
     ?Subroutine6                      5
     ?Subroutine2                     10
     ?Subroutine4                     14
     AXD_HandleKeys                  235
     AXD_MessageMSGCB                130
     ?Subroutine0                     15
     AXD_SendTheMessage                3
     AXD_ReceiveDataIndication        50
     rxCB_Loopback                   100
     myApp_ReadTemperature           100
     ?<Initializer for <Constant "AXD">>
                                       4
     ?<Initializer for <Constant "R: ">>
                                       4
     ?<Initializer for <Constant "Q: ">>
                                       4
     ?<Initializer for AXD_ClusterList>
                                       6
     ?<Initializer for AXD_SimpleDesc>
                                      12
     ?<Initializer for __Constant_427b999a>
                                       4
     ??AXD_Init?relay                  6
     ??AXD_ProcessEvent?relay          6
     ??AXD_ProcessZDOMsgs?relay        6
     ??AXD_HandleKeys?relay            6
     ??AXD_MessageMSGCB?relay          6
     ??AXD_SendTheMessage?relay        6
     ??AXD_ReceiveDataIndication?relay
                                       6
     ??rxCB_Loopback?relay             6
     ??myApp_ReadTemperature?relay     6
     ?<Constant "AXD">                 4
     ?<Constant "R: ">                 4
     ?<Constant "Q: ">                 4
     __Constant_427b999a               4

 
 1 264 bytes in segment BANKED_CODE
    54 bytes in segment BANK_RELAYS
     4 bytes in segment SFR_AN
    34 bytes in segment XDATA_I
    34 bytes in segment XDATA_ID
   114 bytes in segment XDATA_Z
 
 1 348 bytes of CODE  memory (+ 4 bytes shared)
     0 bytes of DATA  memory (+ 4 bytes shared)
   144 bytes of XDATA memory (+ 4 bytes shared)

Errors: none
Warnings: none
